
blinku.elf:     file format elf32-littlearm


Disassembly of section .isr_vector:

08000000 <g_pfnVectors>:
 8000000:	20020000 	andcs	r0, r2, r0
 8000004:	08002b15 	stmdaeq	r0, {r0, r2, r4, r8, r9, fp, sp}
 8000008:	080003f9 	stmdaeq	r0, {r0, r3, r4, r5, r6, r7, r8, r9}
 800000c:	080003fd 	stmdaeq	r0, {r0, r2, r3, r4, r5, r6, r7, r8, r9}
 8000010:	08000401 	stmdaeq	r0, {r0, sl}
 8000014:	08000405 	stmdaeq	r0, {r0, r2, sl}
 8000018:	08000409 	stmdaeq	r0, {r0, r3, sl}
	...
 800002c:	0800040d 	stmdaeq	r0, {r0, r2, r3, sl}
 8000030:	08000411 	stmdaeq	r0, {r0, r4, sl}
 8000034:	00000000 	andeq	r0, r0, r0
 8000038:	08000415 	stmdaeq	r0, {r0, r2, r4, sl}
 800003c:	08000419 	stmdaeq	r0, {r0, r3, r4, sl}
 8000040:	08002b59 	stmdaeq	r0, {r0, r3, r4, r6, r8, r9, fp, sp}
 8000044:	08002b59 	stmdaeq	r0, {r0, r3, r4, r6, r8, r9, fp, sp}
 8000048:	08002b59 	stmdaeq	r0, {r0, r3, r4, r6, r8, r9, fp, sp}
 800004c:	08002b59 	stmdaeq	r0, {r0, r3, r4, r6, r8, r9, fp, sp}
 8000050:	08002b59 	stmdaeq	r0, {r0, r3, r4, r6, r8, r9, fp, sp}
 8000054:	08002b59 	stmdaeq	r0, {r0, r3, r4, r6, r8, r9, fp, sp}
 8000058:	08002b59 	stmdaeq	r0, {r0, r3, r4, r6, r8, r9, fp, sp}
 800005c:	08002b59 	stmdaeq	r0, {r0, r3, r4, r6, r8, r9, fp, sp}
 8000060:	08002b59 	stmdaeq	r0, {r0, r3, r4, r6, r8, r9, fp, sp}
 8000064:	08002b59 	stmdaeq	r0, {r0, r3, r4, r6, r8, r9, fp, sp}
 8000068:	08002b59 	stmdaeq	r0, {r0, r3, r4, r6, r8, r9, fp, sp}
 800006c:	08002b59 	stmdaeq	r0, {r0, r3, r4, r6, r8, r9, fp, sp}
 8000070:	08002b59 	stmdaeq	r0, {r0, r3, r4, r6, r8, r9, fp, sp}
 8000074:	08002b59 	stmdaeq	r0, {r0, r3, r4, r6, r8, r9, fp, sp}
 8000078:	08002b59 	stmdaeq	r0, {r0, r3, r4, r6, r8, r9, fp, sp}
 800007c:	08002b59 	stmdaeq	r0, {r0, r3, r4, r6, r8, r9, fp, sp}
 8000080:	08002b59 	stmdaeq	r0, {r0, r3, r4, r6, r8, r9, fp, sp}
 8000084:	08002b59 	stmdaeq	r0, {r0, r3, r4, r6, r8, r9, fp, sp}
 8000088:	08002b59 	stmdaeq	r0, {r0, r3, r4, r6, r8, r9, fp, sp}
 800008c:	08002b59 	stmdaeq	r0, {r0, r3, r4, r6, r8, r9, fp, sp}
 8000090:	08002b59 	stmdaeq	r0, {r0, r3, r4, r6, r8, r9, fp, sp}
 8000094:	08002b59 	stmdaeq	r0, {r0, r3, r4, r6, r8, r9, fp, sp}
 8000098:	08002b59 	stmdaeq	r0, {r0, r3, r4, r6, r8, r9, fp, sp}
 800009c:	08002b59 	stmdaeq	r0, {r0, r3, r4, r6, r8, r9, fp, sp}
 80000a0:	08002b59 	stmdaeq	r0, {r0, r3, r4, r6, r8, r9, fp, sp}
 80000a4:	08002b59 	stmdaeq	r0, {r0, r3, r4, r6, r8, r9, fp, sp}
 80000a8:	08002b59 	stmdaeq	r0, {r0, r3, r4, r6, r8, r9, fp, sp}
 80000ac:	08002b59 	stmdaeq	r0, {r0, r3, r4, r6, r8, r9, fp, sp}
 80000b0:	08002b59 	stmdaeq	r0, {r0, r3, r4, r6, r8, r9, fp, sp}
 80000b4:	08002b59 	stmdaeq	r0, {r0, r3, r4, r6, r8, r9, fp, sp}
 80000b8:	08002b59 	stmdaeq	r0, {r0, r3, r4, r6, r8, r9, fp, sp}
 80000bc:	08002b59 	stmdaeq	r0, {r0, r3, r4, r6, r8, r9, fp, sp}
 80000c0:	08002b59 	stmdaeq	r0, {r0, r3, r4, r6, r8, r9, fp, sp}
 80000c4:	08002b59 	stmdaeq	r0, {r0, r3, r4, r6, r8, r9, fp, sp}
 80000c8:	08002b59 	stmdaeq	r0, {r0, r3, r4, r6, r8, r9, fp, sp}
 80000cc:	08002b59 	stmdaeq	r0, {r0, r3, r4, r6, r8, r9, fp, sp}
 80000d0:	08002b59 	stmdaeq	r0, {r0, r3, r4, r6, r8, r9, fp, sp}
 80000d4:	08002b59 	stmdaeq	r0, {r0, r3, r4, r6, r8, r9, fp, sp}
 80000d8:	08002b59 	stmdaeq	r0, {r0, r3, r4, r6, r8, r9, fp, sp}
 80000dc:	08002b59 	stmdaeq	r0, {r0, r3, r4, r6, r8, r9, fp, sp}
 80000e0:	08002b59 	stmdaeq	r0, {r0, r3, r4, r6, r8, r9, fp, sp}
 80000e4:	08002b59 	stmdaeq	r0, {r0, r3, r4, r6, r8, r9, fp, sp}
 80000e8:	08002b59 	stmdaeq	r0, {r0, r3, r4, r6, r8, r9, fp, sp}
 80000ec:	08002b59 	stmdaeq	r0, {r0, r3, r4, r6, r8, r9, fp, sp}
 80000f0:	08002b59 	stmdaeq	r0, {r0, r3, r4, r6, r8, r9, fp, sp}
 80000f4:	08002b59 	stmdaeq	r0, {r0, r3, r4, r6, r8, r9, fp, sp}
 80000f8:	08002b59 	stmdaeq	r0, {r0, r3, r4, r6, r8, r9, fp, sp}
 80000fc:	08002b59 	stmdaeq	r0, {r0, r3, r4, r6, r8, r9, fp, sp}
 8000100:	08002b59 	stmdaeq	r0, {r0, r3, r4, r6, r8, r9, fp, sp}
 8000104:	08002b59 	stmdaeq	r0, {r0, r3, r4, r6, r8, r9, fp, sp}
 8000108:	08002b59 	stmdaeq	r0, {r0, r3, r4, r6, r8, r9, fp, sp}
 800010c:	08002b59 	stmdaeq	r0, {r0, r3, r4, r6, r8, r9, fp, sp}
 8000110:	08002b59 	stmdaeq	r0, {r0, r3, r4, r6, r8, r9, fp, sp}
 8000114:	08002b59 	stmdaeq	r0, {r0, r3, r4, r6, r8, r9, fp, sp}
 8000118:	08002b59 	stmdaeq	r0, {r0, r3, r4, r6, r8, r9, fp, sp}
 800011c:	08002b59 	stmdaeq	r0, {r0, r3, r4, r6, r8, r9, fp, sp}
 8000120:	08002b59 	stmdaeq	r0, {r0, r3, r4, r6, r8, r9, fp, sp}
 8000124:	08002b59 	stmdaeq	r0, {r0, r3, r4, r6, r8, r9, fp, sp}
 8000128:	08002b59 	stmdaeq	r0, {r0, r3, r4, r6, r8, r9, fp, sp}
 800012c:	08002b59 	stmdaeq	r0, {r0, r3, r4, r6, r8, r9, fp, sp}
 8000130:	08002b59 	stmdaeq	r0, {r0, r3, r4, r6, r8, r9, fp, sp}
 8000134:	08002b59 	stmdaeq	r0, {r0, r3, r4, r6, r8, r9, fp, sp}
 8000138:	08002b59 	stmdaeq	r0, {r0, r3, r4, r6, r8, r9, fp, sp}
 800013c:	08002b59 	stmdaeq	r0, {r0, r3, r4, r6, r8, r9, fp, sp}
 8000140:	08002b59 	stmdaeq	r0, {r0, r3, r4, r6, r8, r9, fp, sp}
 8000144:	08002b59 	stmdaeq	r0, {r0, r3, r4, r6, r8, r9, fp, sp}
 8000148:	08002b59 	stmdaeq	r0, {r0, r3, r4, r6, r8, r9, fp, sp}
 800014c:	08002b59 	stmdaeq	r0, {r0, r3, r4, r6, r8, r9, fp, sp}
 8000150:	08002b59 	stmdaeq	r0, {r0, r3, r4, r6, r8, r9, fp, sp}
 8000154:	08002b59 	stmdaeq	r0, {r0, r3, r4, r6, r8, r9, fp, sp}
 8000158:	08002b59 	stmdaeq	r0, {r0, r3, r4, r6, r8, r9, fp, sp}
 800015c:	08002b59 	stmdaeq	r0, {r0, r3, r4, r6, r8, r9, fp, sp}
 8000160:	08002b59 	stmdaeq	r0, {r0, r3, r4, r6, r8, r9, fp, sp}
 8000164:	08002b59 	stmdaeq	r0, {r0, r3, r4, r6, r8, r9, fp, sp}
 8000168:	08002b59 	stmdaeq	r0, {r0, r3, r4, r6, r8, r9, fp, sp}
 800016c:	08002b59 	stmdaeq	r0, {r0, r3, r4, r6, r8, r9, fp, sp}
 8000170:	08002b59 	stmdaeq	r0, {r0, r3, r4, r6, r8, r9, fp, sp}
 8000174:	08002b59 	stmdaeq	r0, {r0, r3, r4, r6, r8, r9, fp, sp}
 8000178:	08002b59 	stmdaeq	r0, {r0, r3, r4, r6, r8, r9, fp, sp}
 800017c:	08002b59 	stmdaeq	r0, {r0, r3, r4, r6, r8, r9, fp, sp}
 8000180:	08002b59 	stmdaeq	r0, {r0, r3, r4, r6, r8, r9, fp, sp}
 8000184:	08002b59 	stmdaeq	r0, {r0, r3, r4, r6, r8, r9, fp, sp}

Disassembly of section .text:

08000188 <__do_global_dtors_aux>:
 8000188:	f240 1324 	movw	r3, #292	; 0x124
 800018c:	f2c2 0300 	movt	r3, #8192	; 0x2000
 8000190:	781a      	ldrb	r2, [r3, #0]
 8000192:	b90a      	cbnz	r2, 8000198 <__do_global_dtors_aux+0x10>
 8000194:	2001      	movs	r0, #1
 8000196:	7018      	strb	r0, [r3, #0]
 8000198:	4770      	bx	lr
 800019a:	bf00      	nop

0800019c <frame_dummy>:
 800019c:	f240 1020 	movw	r0, #288	; 0x120
 80001a0:	f2c2 0000 	movt	r0, #8192	; 0x2000
 80001a4:	b508      	push	{r3, lr}
 80001a6:	6803      	ldr	r3, [r0, #0]
 80001a8:	b12b      	cbz	r3, 80001b6 <frame_dummy+0x1a>
 80001aa:	f240 0300 	movw	r3, #0
 80001ae:	f2c0 0300 	movt	r3, #0
 80001b2:	b103      	cbz	r3, 80001b6 <frame_dummy+0x1a>
 80001b4:	4798      	blx	r3
 80001b6:	bd08      	pop	{r3, pc}

080001b8 <main>:
 80001b8:	b510      	push	{r4, lr}
 80001ba:	2008      	movs	r0, #8
 80001bc:	2101      	movs	r1, #1
 80001be:	f001 f96d 	bl	800149c <RCC_AHB1PeriphClockCmd>
 80001c2:	4b1c      	ldr	r3, [pc, #112]	; (8000234 <main+0x7c>)
 80001c4:	481c      	ldr	r0, [pc, #112]	; (8000238 <main+0x80>)
 80001c6:	f44f 4470 	mov.w	r4, #61440	; 0xf000
 80001ca:	601c      	str	r4, [r3, #0]
 80001cc:	2401      	movs	r4, #1
 80001ce:	2200      	movs	r2, #0
 80001d0:	711c      	strb	r4, [r3, #4]
 80001d2:	3402      	adds	r4, #2
 80001d4:	4619      	mov	r1, r3
 80001d6:	719a      	strb	r2, [r3, #6]
 80001d8:	715c      	strb	r4, [r3, #5]
 80001da:	71da      	strb	r2, [r3, #7]
 80001dc:	f000 f9d0 	bl	8000580 <GPIO_Init>
 80001e0:	4815      	ldr	r0, [pc, #84]	; (8000238 <main+0x80>)
 80001e2:	f44f 5180 	mov.w	r1, #4096	; 0x1000
 80001e6:	f000 fc61 	bl	8000aac <GPIO_SetBits>
 80001ea:	4a14      	ldr	r2, [pc, #80]	; (800023c <main+0x84>)
 80001ec:	1e50      	subs	r0, r2, #1
 80001ee:	3a02      	subs	r2, #2
 80001f0:	2800      	cmp	r0, #0
 80001f2:	d1fb      	bne.n	80001ec <main+0x34>
 80001f4:	4810      	ldr	r0, [pc, #64]	; (8000238 <main+0x80>)
 80001f6:	f44f 5100 	mov.w	r1, #8192	; 0x2000
 80001fa:	f000 fc57 	bl	8000aac <GPIO_SetBits>
 80001fe:	4a0f      	ldr	r2, [pc, #60]	; (800023c <main+0x84>)
 8000200:	1e51      	subs	r1, r2, #1
 8000202:	3a02      	subs	r2, #2
 8000204:	2900      	cmp	r1, #0
 8000206:	d1fb      	bne.n	8000200 <main+0x48>
 8000208:	480b      	ldr	r0, [pc, #44]	; (8000238 <main+0x80>)
 800020a:	f44f 4180 	mov.w	r1, #16384	; 0x4000
 800020e:	f000 fc4d 	bl	8000aac <GPIO_SetBits>
 8000212:	4a0a      	ldr	r2, [pc, #40]	; (800023c <main+0x84>)
 8000214:	1e53      	subs	r3, r2, #1
 8000216:	3a02      	subs	r2, #2
 8000218:	2b00      	cmp	r3, #0
 800021a:	d1fb      	bne.n	8000214 <main+0x5c>
 800021c:	4806      	ldr	r0, [pc, #24]	; (8000238 <main+0x80>)
 800021e:	f44f 4170 	mov.w	r1, #61440	; 0xf000
 8000222:	f000 fc7b 	bl	8000b1c <GPIO_ResetBits>
 8000226:	f06f 427f 	mvn.w	r2, #4278190080	; 0xff000000
 800022a:	1e54      	subs	r4, r2, #1
 800022c:	3a02      	subs	r2, #2
 800022e:	2c00      	cmp	r4, #0
 8000230:	d1fb      	bne.n	800022a <main+0x72>
 8000232:	e7d5      	b.n	80001e0 <main+0x28>
 8000234:	20000128 	andcs	r0, r0, r8, lsr #2
 8000238:	40020c00 	andmi	r0, r2, r0, lsl #24
 800023c:	003fffff 	ldrshteq	pc, [pc], -pc	; <UNPREDICTABLE>

08000240 <Delay>:
 8000240:	b082      	sub	sp, #8
 8000242:	9001      	str	r0, [sp, #4]
 8000244:	9b01      	ldr	r3, [sp, #4]
 8000246:	1e5a      	subs	r2, r3, #1
 8000248:	9201      	str	r2, [sp, #4]
 800024a:	2b00      	cmp	r3, #0
 800024c:	d1fa      	bne.n	8000244 <Delay+0x4>
 800024e:	b002      	add	sp, #8
 8000250:	4770      	bx	lr
 8000252:	bf00      	nop

08000254 <assert_param>:
 8000254:	4770      	bx	lr
 8000256:	bf00      	nop

08000258 <akar>:
 8000258:	ee07 0a10 	vmov	s14, r0
 800025c:	eef1 7ac7 	vsqrt.f32	s15, s14
 8000260:	b508      	push	{r3, lr}
 8000262:	eef4 7a67 	vcmp.f32	s15, s15
 8000266:	eef1 fa10 	vmrs	APSR_nzcv, fpscr
 800026a:	d102      	bne.n	8000272 <akar+0x1a>
 800026c:	ee17 0a90 	vmov	r0, s15
 8000270:	bd08      	pop	{r3, pc}
 8000272:	f001 fc71 	bl	8001b58 <sqrtf>
 8000276:	ee07 0a90 	vmov	s15, r0
 800027a:	e7f7      	b.n	800026c <akar+0x14>

0800027c <SystemInit>:
 800027c:	4b38      	ldr	r3, [pc, #224]	; (8000360 <SystemInit+0xe4>)
 800027e:	6819      	ldr	r1, [r3, #0]
 8000280:	2200      	movs	r2, #0
 8000282:	f041 0001 	orr.w	r0, r1, #1
 8000286:	6018      	str	r0, [r3, #0]
 8000288:	609a      	str	r2, [r3, #8]
 800028a:	6819      	ldr	r1, [r3, #0]
 800028c:	f021 7c84 	bic.w	ip, r1, #17301504	; 0x1080000
 8000290:	4934      	ldr	r1, [pc, #208]	; (8000364 <SystemInit+0xe8>)
 8000292:	f42c 3080 	bic.w	r0, ip, #65536	; 0x10000
 8000296:	6018      	str	r0, [r3, #0]
 8000298:	6059      	str	r1, [r3, #4]
 800029a:	6818      	ldr	r0, [r3, #0]
 800029c:	b082      	sub	sp, #8
 800029e:	f420 2180 	bic.w	r1, r0, #262144	; 0x40000
 80002a2:	6019      	str	r1, [r3, #0]
 80002a4:	60da      	str	r2, [r3, #12]
 80002a6:	9201      	str	r2, [sp, #4]
 80002a8:	9200      	str	r2, [sp, #0]
 80002aa:	6818      	ldr	r0, [r3, #0]
 80002ac:	f440 3280 	orr.w	r2, r0, #65536	; 0x10000
 80002b0:	601a      	str	r2, [r3, #0]
 80002b2:	461a      	mov	r2, r3
 80002b4:	e003      	b.n	80002be <SystemInit+0x42>
 80002b6:	9901      	ldr	r1, [sp, #4]
 80002b8:	f5b1 6fa0 	cmp.w	r1, #1280	; 0x500
 80002bc:	d009      	beq.n	80002d2 <SystemInit+0x56>
 80002be:	6810      	ldr	r0, [r2, #0]
 80002c0:	f400 3300 	and.w	r3, r0, #131072	; 0x20000
 80002c4:	9300      	str	r3, [sp, #0]
 80002c6:	9901      	ldr	r1, [sp, #4]
 80002c8:	1c48      	adds	r0, r1, #1
 80002ca:	9001      	str	r0, [sp, #4]
 80002cc:	9b00      	ldr	r3, [sp, #0]
 80002ce:	2b00      	cmp	r3, #0
 80002d0:	d0f1      	beq.n	80002b6 <SystemInit+0x3a>
 80002d2:	4b23      	ldr	r3, [pc, #140]	; (8000360 <SystemInit+0xe4>)
 80002d4:	681a      	ldr	r2, [r3, #0]
 80002d6:	f412 3300 	ands.w	r3, r2, #131072	; 0x20000
 80002da:	d00a      	beq.n	80002f2 <SystemInit+0x76>
 80002dc:	2001      	movs	r0, #1
 80002de:	9000      	str	r0, [sp, #0]
 80002e0:	9900      	ldr	r1, [sp, #0]
 80002e2:	2901      	cmp	r1, #1
 80002e4:	d009      	beq.n	80002fa <SystemInit+0x7e>
 80002e6:	4820      	ldr	r0, [pc, #128]	; (8000368 <SystemInit+0xec>)
 80002e8:	f04f 6200 	mov.w	r2, #134217728	; 0x8000000
 80002ec:	6082      	str	r2, [r0, #8]
 80002ee:	b002      	add	sp, #8
 80002f0:	4770      	bx	lr
 80002f2:	9300      	str	r3, [sp, #0]
 80002f4:	9900      	ldr	r1, [sp, #0]
 80002f6:	2901      	cmp	r1, #1
 80002f8:	d1f5      	bne.n	80002e6 <SystemInit+0x6a>
 80002fa:	4b19      	ldr	r3, [pc, #100]	; (8000360 <SystemInit+0xe4>)
 80002fc:	4a1b      	ldr	r2, [pc, #108]	; (800036c <SystemInit+0xf0>)
 80002fe:	6c18      	ldr	r0, [r3, #64]	; 0x40
 8000300:	f040 5180 	orr.w	r1, r0, #268435456	; 0x10000000
 8000304:	6419      	str	r1, [r3, #64]	; 0x40
 8000306:	6810      	ldr	r0, [r2, #0]
 8000308:	f440 4180 	orr.w	r1, r0, #16384	; 0x4000
 800030c:	6011      	str	r1, [r2, #0]
 800030e:	6898      	ldr	r0, [r3, #8]
 8000310:	6098      	str	r0, [r3, #8]
 8000312:	689a      	ldr	r2, [r3, #8]
 8000314:	f442 4100 	orr.w	r1, r2, #32768	; 0x8000
 8000318:	6099      	str	r1, [r3, #8]
 800031a:	6898      	ldr	r0, [r3, #8]
 800031c:	4914      	ldr	r1, [pc, #80]	; (8000370 <SystemInit+0xf4>)
 800031e:	f440 52a0 	orr.w	r2, r0, #5120	; 0x1400
 8000322:	609a      	str	r2, [r3, #8]
 8000324:	6059      	str	r1, [r3, #4]
 8000326:	6818      	ldr	r0, [r3, #0]
 8000328:	f040 7280 	orr.w	r2, r0, #16777216	; 0x1000000
 800032c:	601a      	str	r2, [r3, #0]
 800032e:	4619      	mov	r1, r3
 8000330:	680b      	ldr	r3, [r1, #0]
 8000332:	4a0b      	ldr	r2, [pc, #44]	; (8000360 <SystemInit+0xe4>)
 8000334:	f013 7f00 	tst.w	r3, #33554432	; 0x2000000
 8000338:	d0fa      	beq.n	8000330 <SystemInit+0xb4>
 800033a:	4b0e      	ldr	r3, [pc, #56]	; (8000374 <SystemInit+0xf8>)
 800033c:	f240 6005 	movw	r0, #1541	; 0x605
 8000340:	6018      	str	r0, [r3, #0]
 8000342:	6891      	ldr	r1, [r2, #8]
 8000344:	f021 0303 	bic.w	r3, r1, #3
 8000348:	6093      	str	r3, [r2, #8]
 800034a:	6890      	ldr	r0, [r2, #8]
 800034c:	f040 0102 	orr.w	r1, r0, #2
 8000350:	6091      	str	r1, [r2, #8]
 8000352:	6891      	ldr	r1, [r2, #8]
 8000354:	f001 0c0c 	and.w	ip, r1, #12
 8000358:	f1bc 0f08 	cmp.w	ip, #8
 800035c:	d1f9      	bne.n	8000352 <SystemInit+0xd6>
 800035e:	e7c2      	b.n	80002e6 <SystemInit+0x6a>
 8000360:	40023800 	andmi	r3, r2, r0, lsl #16
 8000364:	24003010 	strcs	r3, [r0], #-16
 8000368:	e000ed00 	and	lr, r0, r0, lsl #26
 800036c:	40007000 	andmi	r7, r0, r0
 8000370:	07405408 	strbeq	r5, [r0, -r8, lsl #8]
 8000374:	40023c00 	andmi	r3, r2, r0, lsl #24

08000378 <SystemCoreClockUpdate>:
 8000378:	4b16      	ldr	r3, [pc, #88]	; (80003d4 <SystemCoreClockUpdate+0x5c>)
 800037a:	689a      	ldr	r2, [r3, #8]
 800037c:	f002 020c 	and.w	r2, r2, #12
 8000380:	2a04      	cmp	r2, #4
 8000382:	d00c      	beq.n	800039e <SystemCoreClockUpdate+0x26>
 8000384:	2a08      	cmp	r2, #8
 8000386:	d00c      	beq.n	80003a2 <SystemCoreClockUpdate+0x2a>
 8000388:	4a13      	ldr	r2, [pc, #76]	; (80003d8 <SystemCoreClockUpdate+0x60>)
 800038a:	4812      	ldr	r0, [pc, #72]	; (80003d4 <SystemCoreClockUpdate+0x5c>)
 800038c:	4b13      	ldr	r3, [pc, #76]	; (80003dc <SystemCoreClockUpdate+0x64>)
 800038e:	6881      	ldr	r1, [r0, #8]
 8000390:	f3c1 1c03 	ubfx	ip, r1, #4, #4
 8000394:	f813 000c 	ldrb.w	r0, [r3, ip]
 8000398:	40c2      	lsrs	r2, r0
 800039a:	611a      	str	r2, [r3, #16]
 800039c:	4770      	bx	lr
 800039e:	4a10      	ldr	r2, [pc, #64]	; (80003e0 <SystemCoreClockUpdate+0x68>)
 80003a0:	e7f3      	b.n	800038a <SystemCoreClockUpdate+0x12>
 80003a2:	6858      	ldr	r0, [r3, #4]
 80003a4:	6859      	ldr	r1, [r3, #4]
 80003a6:	685b      	ldr	r3, [r3, #4]
 80003a8:	f410 0f80 	tst.w	r0, #4194304	; 0x400000
 80003ac:	bf14      	ite	ne
 80003ae:	4a0c      	ldrne	r2, [pc, #48]	; (80003e0 <SystemCoreClockUpdate+0x68>)
 80003b0:	4a09      	ldreq	r2, [pc, #36]	; (80003d8 <SystemCoreClockUpdate+0x60>)
 80003b2:	f001 013f 	and.w	r1, r1, #63	; 0x3f
 80003b6:	fbb2 fcf1 	udiv	ip, r2, r1
 80003ba:	4906      	ldr	r1, [pc, #24]	; (80003d4 <SystemCoreClockUpdate+0x5c>)
 80003bc:	f3c3 1088 	ubfx	r0, r3, #6, #9
 80003c0:	684b      	ldr	r3, [r1, #4]
 80003c2:	f3c3 4201 	ubfx	r2, r3, #16, #2
 80003c6:	1c51      	adds	r1, r2, #1
 80003c8:	fb0c f000 	mul.w	r0, ip, r0
 80003cc:	004b      	lsls	r3, r1, #1
 80003ce:	fbb0 f2f3 	udiv	r2, r0, r3
 80003d2:	e7da      	b.n	800038a <SystemCoreClockUpdate+0x12>
 80003d4:	40023800 	andmi	r3, r2, r0, lsl #16
 80003d8:	00f42400 	rscseq	r2, r4, r0, lsl #8
 80003dc:	20000004 	andcs	r0, r0, r4
 80003e0:	017d7840 	cmneq	sp, r0, asr #16
 80003e4:	08002b8c 	stmdaeq	r0, {r2, r3, r7, r8, r9, fp, sp}
 80003e8:	20000000 	andcs	r0, r0, r0
 80003ec:	20000120 	andcs	r0, r0, r0, lsr #2
 80003f0:	20000124 	andcs	r0, r0, r4, lsr #2
 80003f4:	20000130 	andcs	r0, r0, r0, lsr r1

080003f8 <NMI_Handler>:
 80003f8:	4770      	bx	lr
 80003fa:	bf00      	nop

080003fc <HardFault_Handler>:
 80003fc:	e7fe      	b.n	80003fc <HardFault_Handler>
 80003fe:	bf00      	nop

08000400 <MemManage_Handler>:
 8000400:	e7fe      	b.n	8000400 <MemManage_Handler>
 8000402:	bf00      	nop

08000404 <BusFault_Handler>:
 8000404:	e7fe      	b.n	8000404 <BusFault_Handler>
 8000406:	bf00      	nop

08000408 <UsageFault_Handler>:
 8000408:	e7fe      	b.n	8000408 <UsageFault_Handler>
 800040a:	bf00      	nop

0800040c <SVC_Handler>:
 800040c:	4770      	bx	lr
 800040e:	bf00      	nop

08000410 <DebugMon_Handler>:
 8000410:	4770      	bx	lr
 8000412:	bf00      	nop

08000414 <PendSV_Handler>:
 8000414:	4770      	bx	lr
 8000416:	bf00      	nop

08000418 <SysTick_Handler>:
 8000418:	4770      	bx	lr
 800041a:	bf00      	nop

0800041c <GPIO_DeInit>:
 800041c:	4b50      	ldr	r3, [pc, #320]	; (8000560 <GPIO_DeInit+0x144>)
 800041e:	4298      	cmp	r0, r3
 8000420:	b510      	push	{r4, lr}
 8000422:	4604      	mov	r4, r0
 8000424:	d03a      	beq.n	800049c <GPIO_DeInit+0x80>
 8000426:	f503 6380 	add.w	r3, r3, #1024	; 0x400
 800042a:	4298      	cmp	r0, r3
 800042c:	d043      	beq.n	80004b6 <GPIO_DeInit+0x9a>
 800042e:	f503 6380 	add.w	r3, r3, #1024	; 0x400
 8000432:	4298      	cmp	r0, r3
 8000434:	d030      	beq.n	8000498 <GPIO_DeInit+0x7c>
 8000436:	f503 6380 	add.w	r3, r3, #1024	; 0x400
 800043a:	4298      	cmp	r0, r3
 800043c:	d02c      	beq.n	8000498 <GPIO_DeInit+0x7c>
 800043e:	f503 6380 	add.w	r3, r3, #1024	; 0x400
 8000442:	4298      	cmp	r0, r3
 8000444:	d028      	beq.n	8000498 <GPIO_DeInit+0x7c>
 8000446:	f503 6380 	add.w	r3, r3, #1024	; 0x400
 800044a:	4298      	cmp	r0, r3
 800044c:	d024      	beq.n	8000498 <GPIO_DeInit+0x7c>
 800044e:	f503 6380 	add.w	r3, r3, #1024	; 0x400
 8000452:	4298      	cmp	r0, r3
 8000454:	d020      	beq.n	8000498 <GPIO_DeInit+0x7c>
 8000456:	f503 6380 	add.w	r3, r3, #1024	; 0x400
 800045a:	4298      	cmp	r0, r3
 800045c:	d01c      	beq.n	8000498 <GPIO_DeInit+0x7c>
 800045e:	4a41      	ldr	r2, [pc, #260]	; (8000564 <GPIO_DeInit+0x148>)
 8000460:	1a81      	subs	r1, r0, r2
 8000462:	4248      	negs	r0, r1
 8000464:	eb40 0001 	adc.w	r0, r0, r1
 8000468:	f7ff fef4 	bl	8000254 <assert_param>
 800046c:	493e      	ldr	r1, [pc, #248]	; (8000568 <GPIO_DeInit+0x14c>)
 800046e:	428c      	cmp	r4, r1
 8000470:	d03a      	beq.n	80004e8 <GPIO_DeInit+0xcc>
 8000472:	4b3e      	ldr	r3, [pc, #248]	; (800056c <GPIO_DeInit+0x150>)
 8000474:	429c      	cmp	r4, r3
 8000476:	d041      	beq.n	80004fc <GPIO_DeInit+0xe0>
 8000478:	483d      	ldr	r0, [pc, #244]	; (8000570 <GPIO_DeInit+0x154>)
 800047a:	4284      	cmp	r4, r0
 800047c:	d048      	beq.n	8000510 <GPIO_DeInit+0xf4>
 800047e:	493d      	ldr	r1, [pc, #244]	; (8000574 <GPIO_DeInit+0x158>)
 8000480:	428c      	cmp	r4, r1
 8000482:	d04f      	beq.n	8000524 <GPIO_DeInit+0x108>
 8000484:	4a3c      	ldr	r2, [pc, #240]	; (8000578 <GPIO_DeInit+0x15c>)
 8000486:	4294      	cmp	r4, r2
 8000488:	d056      	beq.n	8000538 <GPIO_DeInit+0x11c>
 800048a:	4b3c      	ldr	r3, [pc, #240]	; (800057c <GPIO_DeInit+0x160>)
 800048c:	429c      	cmp	r4, r3
 800048e:	d05d      	beq.n	800054c <GPIO_DeInit+0x130>
 8000490:	4834      	ldr	r0, [pc, #208]	; (8000564 <GPIO_DeInit+0x148>)
 8000492:	4284      	cmp	r4, r0
 8000494:	d01c      	beq.n	80004d0 <GPIO_DeInit+0xb4>
 8000496:	bd10      	pop	{r4, pc}
 8000498:	2001      	movs	r0, #1
 800049a:	e7e5      	b.n	8000468 <GPIO_DeInit+0x4c>
 800049c:	2001      	movs	r0, #1
 800049e:	f7ff fed9 	bl	8000254 <assert_param>
 80004a2:	2001      	movs	r0, #1
 80004a4:	4601      	mov	r1, r0
 80004a6:	f001 f8d7 	bl	8001658 <RCC_AHB1PeriphResetCmd>
 80004aa:	2001      	movs	r0, #1
 80004ac:	2100      	movs	r1, #0
 80004ae:	e8bd 4010 	ldmia.w	sp!, {r4, lr}
 80004b2:	f001 b8d1 	b.w	8001658 <RCC_AHB1PeriphResetCmd>
 80004b6:	2001      	movs	r0, #1
 80004b8:	f7ff fecc 	bl	8000254 <assert_param>
 80004bc:	2002      	movs	r0, #2
 80004be:	2101      	movs	r1, #1
 80004c0:	f001 f8ca 	bl	8001658 <RCC_AHB1PeriphResetCmd>
 80004c4:	2002      	movs	r0, #2
 80004c6:	2100      	movs	r1, #0
 80004c8:	e8bd 4010 	ldmia.w	sp!, {r4, lr}
 80004cc:	f001 b8c4 	b.w	8001658 <RCC_AHB1PeriphResetCmd>
 80004d0:	2101      	movs	r1, #1
 80004d2:	f44f 7080 	mov.w	r0, #256	; 0x100
 80004d6:	f001 f8bf 	bl	8001658 <RCC_AHB1PeriphResetCmd>
 80004da:	f44f 7080 	mov.w	r0, #256	; 0x100
 80004de:	2100      	movs	r1, #0
 80004e0:	e8bd 4010 	ldmia.w	sp!, {r4, lr}
 80004e4:	f001 b8b8 	b.w	8001658 <RCC_AHB1PeriphResetCmd>
 80004e8:	2004      	movs	r0, #4
 80004ea:	2101      	movs	r1, #1
 80004ec:	f001 f8b4 	bl	8001658 <RCC_AHB1PeriphResetCmd>
 80004f0:	2004      	movs	r0, #4
 80004f2:	2100      	movs	r1, #0
 80004f4:	e8bd 4010 	ldmia.w	sp!, {r4, lr}
 80004f8:	f001 b8ae 	b.w	8001658 <RCC_AHB1PeriphResetCmd>
 80004fc:	2008      	movs	r0, #8
 80004fe:	2101      	movs	r1, #1
 8000500:	f001 f8aa 	bl	8001658 <RCC_AHB1PeriphResetCmd>
 8000504:	2008      	movs	r0, #8
 8000506:	2100      	movs	r1, #0
 8000508:	e8bd 4010 	ldmia.w	sp!, {r4, lr}
 800050c:	f001 b8a4 	b.w	8001658 <RCC_AHB1PeriphResetCmd>
 8000510:	2010      	movs	r0, #16
 8000512:	2101      	movs	r1, #1
 8000514:	f001 f8a0 	bl	8001658 <RCC_AHB1PeriphResetCmd>
 8000518:	2010      	movs	r0, #16
 800051a:	2100      	movs	r1, #0
 800051c:	e8bd 4010 	ldmia.w	sp!, {r4, lr}
 8000520:	f001 b89a 	b.w	8001658 <RCC_AHB1PeriphResetCmd>
 8000524:	2020      	movs	r0, #32
 8000526:	2101      	movs	r1, #1
 8000528:	f001 f896 	bl	8001658 <RCC_AHB1PeriphResetCmd>
 800052c:	2020      	movs	r0, #32
 800052e:	2100      	movs	r1, #0
 8000530:	e8bd 4010 	ldmia.w	sp!, {r4, lr}
 8000534:	f001 b890 	b.w	8001658 <RCC_AHB1PeriphResetCmd>
 8000538:	2040      	movs	r0, #64	; 0x40
 800053a:	2101      	movs	r1, #1
 800053c:	f001 f88c 	bl	8001658 <RCC_AHB1PeriphResetCmd>
 8000540:	2040      	movs	r0, #64	; 0x40
 8000542:	2100      	movs	r1, #0
 8000544:	e8bd 4010 	ldmia.w	sp!, {r4, lr}
 8000548:	f001 b886 	b.w	8001658 <RCC_AHB1PeriphResetCmd>
 800054c:	2080      	movs	r0, #128	; 0x80
 800054e:	2101      	movs	r1, #1
 8000550:	f001 f882 	bl	8001658 <RCC_AHB1PeriphResetCmd>
 8000554:	2080      	movs	r0, #128	; 0x80
 8000556:	2100      	movs	r1, #0
 8000558:	e8bd 4010 	ldmia.w	sp!, {r4, lr}
 800055c:	f001 b87c 	b.w	8001658 <RCC_AHB1PeriphResetCmd>
 8000560:	40020000 	andmi	r0, r2, r0
 8000564:	40022000 	andmi	r2, r2, r0
 8000568:	40020800 	andmi	r0, r2, r0, lsl #16
 800056c:	40020c00 	andmi	r0, r2, r0, lsl #24
 8000570:	40021000 	andmi	r1, r2, r0
 8000574:	40021400 	andmi	r1, r2, r0, lsl #8
 8000578:	40021800 	andmi	r1, r2, r0, lsl #16
 800057c:	40021c00 	andmi	r1, r2, r0, lsl #24

08000580 <GPIO_Init>:
 8000580:	e92d 4ff8 	stmdb	sp!, {r3, r4, r5, r6, r7, r8, r9, sl, fp, lr}
 8000584:	4b7a      	ldr	r3, [pc, #488]	; (8000770 <GPIO_Init+0x1f0>)
 8000586:	4298      	cmp	r0, r3
 8000588:	4604      	mov	r4, r0
 800058a:	460e      	mov	r6, r1
 800058c:	d021      	beq.n	80005d2 <GPIO_Init+0x52>
 800058e:	f503 6380 	add.w	r3, r3, #1024	; 0x400
 8000592:	4298      	cmp	r0, r3
 8000594:	d01d      	beq.n	80005d2 <GPIO_Init+0x52>
 8000596:	f503 6380 	add.w	r3, r3, #1024	; 0x400
 800059a:	4298      	cmp	r0, r3
 800059c:	d019      	beq.n	80005d2 <GPIO_Init+0x52>
 800059e:	f503 6380 	add.w	r3, r3, #1024	; 0x400
 80005a2:	4298      	cmp	r0, r3
 80005a4:	d015      	beq.n	80005d2 <GPIO_Init+0x52>
 80005a6:	f503 6380 	add.w	r3, r3, #1024	; 0x400
 80005aa:	4298      	cmp	r0, r3
 80005ac:	d011      	beq.n	80005d2 <GPIO_Init+0x52>
 80005ae:	f503 6380 	add.w	r3, r3, #1024	; 0x400
 80005b2:	4298      	cmp	r0, r3
 80005b4:	d00d      	beq.n	80005d2 <GPIO_Init+0x52>
 80005b6:	f503 6380 	add.w	r3, r3, #1024	; 0x400
 80005ba:	4298      	cmp	r0, r3
 80005bc:	d009      	beq.n	80005d2 <GPIO_Init+0x52>
 80005be:	f503 6380 	add.w	r3, r3, #1024	; 0x400
 80005c2:	4298      	cmp	r0, r3
 80005c4:	d005      	beq.n	80005d2 <GPIO_Init+0x52>
 80005c6:	496b      	ldr	r1, [pc, #428]	; (8000774 <GPIO_Init+0x1f4>)
 80005c8:	1a42      	subs	r2, r0, r1
 80005ca:	4250      	negs	r0, r2
 80005cc:	eb40 0002 	adc.w	r0, r0, r2
 80005d0:	e000      	b.n	80005d4 <GPIO_Init+0x54>
 80005d2:	2001      	movs	r0, #1
 80005d4:	f7ff fe3e 	bl	8000254 <assert_param>
 80005d8:	6835      	ldr	r5, [r6, #0]
 80005da:	1e28      	subs	r0, r5, #0
 80005dc:	bf18      	it	ne
 80005de:	2001      	movne	r0, #1
 80005e0:	f7ff fe38 	bl	8000254 <assert_param>
 80005e4:	7930      	ldrb	r0, [r6, #4]
 80005e6:	2803      	cmp	r0, #3
 80005e8:	bf8c      	ite	hi
 80005ea:	2000      	movhi	r0, #0
 80005ec:	2001      	movls	r0, #1
 80005ee:	f7ff fe31 	bl	8000254 <assert_param>
 80005f2:	79f0      	ldrb	r0, [r6, #7]
 80005f4:	2802      	cmp	r0, #2
 80005f6:	bf8c      	ite	hi
 80005f8:	2000      	movhi	r0, #0
 80005fa:	2001      	movls	r0, #1
 80005fc:	2700      	movs	r7, #0
 80005fe:	f7ff fe29 	bl	8000254 <assert_param>
 8000602:	463d      	mov	r5, r7
 8000604:	f04f 0801 	mov.w	r8, #1
 8000608:	f04f 0a03 	mov.w	sl, #3
 800060c:	e00c      	b.n	8000628 <GPIO_Init+0xa8>
 800060e:	3501      	adds	r5, #1
 8000610:	6831      	ldr	r1, [r6, #0]
 8000612:	fa08 fc05 	lsl.w	ip, r8, r5
 8000616:	ea0c 0901 	and.w	r9, ip, r1
 800061a:	3702      	adds	r7, #2
 800061c:	45e1      	cmp	r9, ip
 800061e:	d033      	beq.n	8000688 <GPIO_Init+0x108>
 8000620:	3501      	adds	r5, #1
 8000622:	3702      	adds	r7, #2
 8000624:	2d10      	cmp	r5, #16
 8000626:	d053      	beq.n	80006d0 <GPIO_Init+0x150>
 8000628:	6833      	ldr	r3, [r6, #0]
 800062a:	fa08 fc05 	lsl.w	ip, r8, r5
 800062e:	ea0c 0903 	and.w	r9, ip, r3
 8000632:	45e1      	cmp	r9, ip
 8000634:	d1eb      	bne.n	800060e <GPIO_Init+0x8e>
 8000636:	6822      	ldr	r2, [r4, #0]
 8000638:	7930      	ldrb	r0, [r6, #4]
 800063a:	fa0a fb07 	lsl.w	fp, sl, r7
 800063e:	ea6f 0b0b 	mvn.w	fp, fp
 8000642:	ea0b 0302 	and.w	r3, fp, r2
 8000646:	6023      	str	r3, [r4, #0]
 8000648:	6822      	ldr	r2, [r4, #0]
 800064a:	1e43      	subs	r3, r0, #1
 800064c:	fa10 f107 	lsls.w	r1, r0, r7
 8000650:	fa5f fe83 	uxtb.w	lr, r3
 8000654:	ea41 0002 	orr.w	r0, r1, r2
 8000658:	f1be 0f01 	cmp.w	lr, #1
 800065c:	6020      	str	r0, [r4, #0]
 800065e:	d960      	bls.n	8000722 <GPIO_Init+0x1a2>
 8000660:	68e3      	ldr	r3, [r4, #12]
 8000662:	79f0      	ldrb	r0, [r6, #7]
 8000664:	ea0b 0203 	and.w	r2, fp, r3
 8000668:	60e2      	str	r2, [r4, #12]
 800066a:	68e1      	ldr	r1, [r4, #12]
 800066c:	fa10 f307 	lsls.w	r3, r0, r7
 8000670:	ea43 0001 	orr.w	r0, r3, r1
 8000674:	3501      	adds	r5, #1
 8000676:	6831      	ldr	r1, [r6, #0]
 8000678:	60e0      	str	r0, [r4, #12]
 800067a:	fa08 fc05 	lsl.w	ip, r8, r5
 800067e:	ea0c 0901 	and.w	r9, ip, r1
 8000682:	3702      	adds	r7, #2
 8000684:	45e1      	cmp	r9, ip
 8000686:	d1cb      	bne.n	8000620 <GPIO_Init+0xa0>
 8000688:	6822      	ldr	r2, [r4, #0]
 800068a:	7930      	ldrb	r0, [r6, #4]
 800068c:	fa0a fb07 	lsl.w	fp, sl, r7
 8000690:	ea6f 0b0b 	mvn.w	fp, fp
 8000694:	ea0b 0302 	and.w	r3, fp, r2
 8000698:	6023      	str	r3, [r4, #0]
 800069a:	6822      	ldr	r2, [r4, #0]
 800069c:	1e43      	subs	r3, r0, #1
 800069e:	fa10 f107 	lsls.w	r1, r0, r7
 80006a2:	fa5f fe83 	uxtb.w	lr, r3
 80006a6:	ea41 0002 	orr.w	r0, r1, r2
 80006aa:	f1be 0f01 	cmp.w	lr, #1
 80006ae:	6020      	str	r0, [r4, #0]
 80006b0:	d910      	bls.n	80006d4 <GPIO_Init+0x154>
 80006b2:	68e0      	ldr	r0, [r4, #12]
 80006b4:	79f3      	ldrb	r3, [r6, #7]
 80006b6:	ea0b 0100 	and.w	r1, fp, r0
 80006ba:	60e1      	str	r1, [r4, #12]
 80006bc:	68e2      	ldr	r2, [r4, #12]
 80006be:	fa13 f007 	lsls.w	r0, r3, r7
 80006c2:	3501      	adds	r5, #1
 80006c4:	ea40 0102 	orr.w	r1, r0, r2
 80006c8:	3702      	adds	r7, #2
 80006ca:	2d10      	cmp	r5, #16
 80006cc:	60e1      	str	r1, [r4, #12]
 80006ce:	d1ab      	bne.n	8000628 <GPIO_Init+0xa8>
 80006d0:	e8bd 8ff8 	ldmia.w	sp!, {r3, r4, r5, r6, r7, r8, r9, sl, fp, pc}
 80006d4:	7970      	ldrb	r0, [r6, #5]
 80006d6:	2803      	cmp	r0, #3
 80006d8:	bf8c      	ite	hi
 80006da:	2000      	movhi	r0, #0
 80006dc:	2001      	movls	r0, #1
 80006de:	f7ff fdb9 	bl	8000254 <assert_param>
 80006e2:	68a2      	ldr	r2, [r4, #8]
 80006e4:	79b0      	ldrb	r0, [r6, #6]
 80006e6:	7973      	ldrb	r3, [r6, #5]
 80006e8:	ea0b 0102 	and.w	r1, fp, r2
 80006ec:	60a1      	str	r1, [r4, #8]
 80006ee:	68a2      	ldr	r2, [r4, #8]
 80006f0:	fa13 f107 	lsls.w	r1, r3, r7
 80006f4:	ea41 0302 	orr.w	r3, r1, r2
 80006f8:	2801      	cmp	r0, #1
 80006fa:	60a3      	str	r3, [r4, #8]
 80006fc:	bf8c      	ite	hi
 80006fe:	2000      	movhi	r0, #0
 8000700:	2001      	movls	r0, #1
 8000702:	f7ff fda7 	bl	8000254 <assert_param>
 8000706:	6861      	ldr	r1, [r4, #4]
 8000708:	79b0      	ldrb	r0, [r6, #6]
 800070a:	ea21 0209 	bic.w	r2, r1, r9
 800070e:	6062      	str	r2, [r4, #4]
 8000710:	6861      	ldr	r1, [r4, #4]
 8000712:	fa10 f305 	lsls.w	r3, r0, r5
 8000716:	fa1f fc83 	uxth.w	ip, r3
 800071a:	ea4c 0201 	orr.w	r2, ip, r1
 800071e:	6062      	str	r2, [r4, #4]
 8000720:	e7c7      	b.n	80006b2 <GPIO_Init+0x132>
 8000722:	7970      	ldrb	r0, [r6, #5]
 8000724:	2803      	cmp	r0, #3
 8000726:	bf8c      	ite	hi
 8000728:	2000      	movhi	r0, #0
 800072a:	2001      	movls	r0, #1
 800072c:	f7ff fd92 	bl	8000254 <assert_param>
 8000730:	68a2      	ldr	r2, [r4, #8]
 8000732:	79b0      	ldrb	r0, [r6, #6]
 8000734:	7973      	ldrb	r3, [r6, #5]
 8000736:	ea0b 0102 	and.w	r1, fp, r2
 800073a:	60a1      	str	r1, [r4, #8]
 800073c:	68a2      	ldr	r2, [r4, #8]
 800073e:	fa13 f107 	lsls.w	r1, r3, r7
 8000742:	ea41 0302 	orr.w	r3, r1, r2
 8000746:	2801      	cmp	r0, #1
 8000748:	60a3      	str	r3, [r4, #8]
 800074a:	bf8c      	ite	hi
 800074c:	2000      	movhi	r0, #0
 800074e:	2001      	movls	r0, #1
 8000750:	f7ff fd80 	bl	8000254 <assert_param>
 8000754:	6860      	ldr	r0, [r4, #4]
 8000756:	79b1      	ldrb	r1, [r6, #6]
 8000758:	ea20 0209 	bic.w	r2, r0, r9
 800075c:	6062      	str	r2, [r4, #4]
 800075e:	6860      	ldr	r0, [r4, #4]
 8000760:	fa11 f305 	lsls.w	r3, r1, r5
 8000764:	fa1f f983 	uxth.w	r9, r3
 8000768:	ea49 0100 	orr.w	r1, r9, r0
 800076c:	6061      	str	r1, [r4, #4]
 800076e:	e777      	b.n	8000660 <GPIO_Init+0xe0>
 8000770:	40020000 	andmi	r0, r2, r0
 8000774:	40022000 	andmi	r2, r2, r0

08000778 <GPIO_StructInit>:
 8000778:	2300      	movs	r3, #0
 800077a:	f64f 72ff 	movw	r2, #65535	; 0xffff
 800077e:	6002      	str	r2, [r0, #0]
 8000780:	7103      	strb	r3, [r0, #4]
 8000782:	7143      	strb	r3, [r0, #5]
 8000784:	7183      	strb	r3, [r0, #6]
 8000786:	71c3      	strb	r3, [r0, #7]
 8000788:	4770      	bx	lr
 800078a:	bf00      	nop

0800078c <GPIO_PinLockConfig>:
 800078c:	b530      	push	{r4, r5, lr}
 800078e:	b083      	sub	sp, #12
 8000790:	f44f 3380 	mov.w	r3, #65536	; 0x10000
 8000794:	9301      	str	r3, [sp, #4]
 8000796:	4b1f      	ldr	r3, [pc, #124]	; (8000814 <GPIO_PinLockConfig+0x88>)
 8000798:	4298      	cmp	r0, r3
 800079a:	4604      	mov	r4, r0
 800079c:	460d      	mov	r5, r1
 800079e:	d021      	beq.n	80007e4 <GPIO_PinLockConfig+0x58>
 80007a0:	f503 6380 	add.w	r3, r3, #1024	; 0x400
 80007a4:	4298      	cmp	r0, r3
 80007a6:	d01d      	beq.n	80007e4 <GPIO_PinLockConfig+0x58>
 80007a8:	f503 6380 	add.w	r3, r3, #1024	; 0x400
 80007ac:	4298      	cmp	r0, r3
 80007ae:	d019      	beq.n	80007e4 <GPIO_PinLockConfig+0x58>
 80007b0:	f503 6380 	add.w	r3, r3, #1024	; 0x400
 80007b4:	4298      	cmp	r0, r3
 80007b6:	d015      	beq.n	80007e4 <GPIO_PinLockConfig+0x58>
 80007b8:	f503 6380 	add.w	r3, r3, #1024	; 0x400
 80007bc:	4298      	cmp	r0, r3
 80007be:	d011      	beq.n	80007e4 <GPIO_PinLockConfig+0x58>
 80007c0:	f503 6380 	add.w	r3, r3, #1024	; 0x400
 80007c4:	4298      	cmp	r0, r3
 80007c6:	d00d      	beq.n	80007e4 <GPIO_PinLockConfig+0x58>
 80007c8:	f503 6380 	add.w	r3, r3, #1024	; 0x400
 80007cc:	4298      	cmp	r0, r3
 80007ce:	d009      	beq.n	80007e4 <GPIO_PinLockConfig+0x58>
 80007d0:	f503 6180 	add.w	r1, r3, #1024	; 0x400
 80007d4:	4288      	cmp	r0, r1
 80007d6:	d005      	beq.n	80007e4 <GPIO_PinLockConfig+0x58>
 80007d8:	4b0f      	ldr	r3, [pc, #60]	; (8000818 <GPIO_PinLockConfig+0x8c>)
 80007da:	1ac2      	subs	r2, r0, r3
 80007dc:	4250      	negs	r0, r2
 80007de:	eb40 0002 	adc.w	r0, r0, r2
 80007e2:	e000      	b.n	80007e6 <GPIO_PinLockConfig+0x5a>
 80007e4:	2001      	movs	r0, #1
 80007e6:	f7ff fd35 	bl	8000254 <assert_param>
 80007ea:	1e28      	subs	r0, r5, #0
 80007ec:	bf18      	it	ne
 80007ee:	2001      	movne	r0, #1
 80007f0:	f7ff fd30 	bl	8000254 <assert_param>
 80007f4:	9801      	ldr	r0, [sp, #4]
 80007f6:	ea45 0100 	orr.w	r1, r5, r0
 80007fa:	9101      	str	r1, [sp, #4]
 80007fc:	9b01      	ldr	r3, [sp, #4]
 80007fe:	61e3      	str	r3, [r4, #28]
 8000800:	61e5      	str	r5, [r4, #28]
 8000802:	9a01      	ldr	r2, [sp, #4]
 8000804:	61e2      	str	r2, [r4, #28]
 8000806:	69e0      	ldr	r0, [r4, #28]
 8000808:	9001      	str	r0, [sp, #4]
 800080a:	69e1      	ldr	r1, [r4, #28]
 800080c:	9101      	str	r1, [sp, #4]
 800080e:	b003      	add	sp, #12
 8000810:	bd30      	pop	{r4, r5, pc}
 8000812:	bf00      	nop
 8000814:	40020000 	andmi	r0, r2, r0
 8000818:	40022000 	andmi	r2, r2, r0

0800081c <GPIO_ReadInputDataBit>:
 800081c:	b538      	push	{r3, r4, r5, lr}
 800081e:	4b33      	ldr	r3, [pc, #204]	; (80008ec <GPIO_ReadInputDataBit+0xd0>)
 8000820:	4298      	cmp	r0, r3
 8000822:	4604      	mov	r4, r0
 8000824:	460d      	mov	r5, r1
 8000826:	d031      	beq.n	800088c <GPIO_ReadInputDataBit+0x70>
 8000828:	f503 6380 	add.w	r3, r3, #1024	; 0x400
 800082c:	4298      	cmp	r0, r3
 800082e:	d02d      	beq.n	800088c <GPIO_ReadInputDataBit+0x70>
 8000830:	f503 6380 	add.w	r3, r3, #1024	; 0x400
 8000834:	4298      	cmp	r0, r3
 8000836:	d029      	beq.n	800088c <GPIO_ReadInputDataBit+0x70>
 8000838:	f503 6380 	add.w	r3, r3, #1024	; 0x400
 800083c:	4298      	cmp	r0, r3
 800083e:	d025      	beq.n	800088c <GPIO_ReadInputDataBit+0x70>
 8000840:	f503 6380 	add.w	r3, r3, #1024	; 0x400
 8000844:	4298      	cmp	r0, r3
 8000846:	d021      	beq.n	800088c <GPIO_ReadInputDataBit+0x70>
 8000848:	f503 6380 	add.w	r3, r3, #1024	; 0x400
 800084c:	4298      	cmp	r0, r3
 800084e:	d01d      	beq.n	800088c <GPIO_ReadInputDataBit+0x70>
 8000850:	f503 6380 	add.w	r3, r3, #1024	; 0x400
 8000854:	4298      	cmp	r0, r3
 8000856:	d019      	beq.n	800088c <GPIO_ReadInputDataBit+0x70>
 8000858:	f503 6380 	add.w	r3, r3, #1024	; 0x400
 800085c:	4298      	cmp	r0, r3
 800085e:	d015      	beq.n	800088c <GPIO_ReadInputDataBit+0x70>
 8000860:	4923      	ldr	r1, [pc, #140]	; (80008f0 <GPIO_ReadInputDataBit+0xd4>)
 8000862:	ebc1 0c00 	rsb	ip, r1, r0
 8000866:	f1dc 0000 	rsbs	r0, ip, #0
 800086a:	eb40 000c 	adc.w	r0, r0, ip
 800086e:	f7ff fcf1 	bl	8000254 <assert_param>
 8000872:	1e6b      	subs	r3, r5, #1
 8000874:	b29a      	uxth	r2, r3
 8000876:	2a01      	cmp	r2, #1
 8000878:	d80f      	bhi.n	800089a <GPIO_ReadInputDataBit+0x7e>
 800087a:	2001      	movs	r0, #1
 800087c:	f7ff fcea 	bl	8000254 <assert_param>
 8000880:	6921      	ldr	r1, [r4, #16]
 8000882:	420d      	tst	r5, r1
 8000884:	bf0c      	ite	eq
 8000886:	2000      	moveq	r0, #0
 8000888:	2001      	movne	r0, #1
 800088a:	bd38      	pop	{r3, r4, r5, pc}
 800088c:	2001      	movs	r0, #1
 800088e:	f7ff fce1 	bl	8000254 <assert_param>
 8000892:	1e6b      	subs	r3, r5, #1
 8000894:	b29a      	uxth	r2, r3
 8000896:	2a01      	cmp	r2, #1
 8000898:	d9ef      	bls.n	800087a <GPIO_ReadInputDataBit+0x5e>
 800089a:	2d04      	cmp	r5, #4
 800089c:	d0ed      	beq.n	800087a <GPIO_ReadInputDataBit+0x5e>
 800089e:	2d08      	cmp	r5, #8
 80008a0:	d0eb      	beq.n	800087a <GPIO_ReadInputDataBit+0x5e>
 80008a2:	2d10      	cmp	r5, #16
 80008a4:	d0e9      	beq.n	800087a <GPIO_ReadInputDataBit+0x5e>
 80008a6:	2d20      	cmp	r5, #32
 80008a8:	d0e7      	beq.n	800087a <GPIO_ReadInputDataBit+0x5e>
 80008aa:	2d40      	cmp	r5, #64	; 0x40
 80008ac:	d0e5      	beq.n	800087a <GPIO_ReadInputDataBit+0x5e>
 80008ae:	2d80      	cmp	r5, #128	; 0x80
 80008b0:	d0e3      	beq.n	800087a <GPIO_ReadInputDataBit+0x5e>
 80008b2:	f5b5 7f80 	cmp.w	r5, #256	; 0x100
 80008b6:	d0e0      	beq.n	800087a <GPIO_ReadInputDataBit+0x5e>
 80008b8:	f5b5 7f00 	cmp.w	r5, #512	; 0x200
 80008bc:	d0dd      	beq.n	800087a <GPIO_ReadInputDataBit+0x5e>
 80008be:	f5b5 6f80 	cmp.w	r5, #1024	; 0x400
 80008c2:	d0da      	beq.n	800087a <GPIO_ReadInputDataBit+0x5e>
 80008c4:	f5b5 6f00 	cmp.w	r5, #2048	; 0x800
 80008c8:	d0d7      	beq.n	800087a <GPIO_ReadInputDataBit+0x5e>
 80008ca:	f5b5 5f80 	cmp.w	r5, #4096	; 0x1000
 80008ce:	d0d4      	beq.n	800087a <GPIO_ReadInputDataBit+0x5e>
 80008d0:	f5b5 5f00 	cmp.w	r5, #8192	; 0x2000
 80008d4:	d0d1      	beq.n	800087a <GPIO_ReadInputDataBit+0x5e>
 80008d6:	f5b5 4f80 	cmp.w	r5, #16384	; 0x4000
 80008da:	d0ce      	beq.n	800087a <GPIO_ReadInputDataBit+0x5e>
 80008dc:	f5a5 4e00 	sub.w	lr, r5, #32768	; 0x8000
 80008e0:	f1de 0000 	rsbs	r0, lr, #0
 80008e4:	eb40 000e 	adc.w	r0, r0, lr
 80008e8:	e7c8      	b.n	800087c <GPIO_ReadInputDataBit+0x60>
 80008ea:	bf00      	nop
 80008ec:	40020000 	andmi	r0, r2, r0
 80008f0:	40022000 	andmi	r2, r2, r0

080008f4 <GPIO_ReadInputData>:
 80008f4:	4b18      	ldr	r3, [pc, #96]	; (8000958 <GPIO_ReadInputData+0x64>)
 80008f6:	4298      	cmp	r0, r3
 80008f8:	b510      	push	{r4, lr}
 80008fa:	4604      	mov	r4, r0
 80008fc:	d025      	beq.n	800094a <GPIO_ReadInputData+0x56>
 80008fe:	f503 6380 	add.w	r3, r3, #1024	; 0x400
 8000902:	4298      	cmp	r0, r3
 8000904:	d021      	beq.n	800094a <GPIO_ReadInputData+0x56>
 8000906:	f503 6380 	add.w	r3, r3, #1024	; 0x400
 800090a:	4298      	cmp	r0, r3
 800090c:	d01d      	beq.n	800094a <GPIO_ReadInputData+0x56>
 800090e:	f503 6380 	add.w	r3, r3, #1024	; 0x400
 8000912:	4298      	cmp	r0, r3
 8000914:	d019      	beq.n	800094a <GPIO_ReadInputData+0x56>
 8000916:	f503 6380 	add.w	r3, r3, #1024	; 0x400
 800091a:	4298      	cmp	r0, r3
 800091c:	d015      	beq.n	800094a <GPIO_ReadInputData+0x56>
 800091e:	f503 6380 	add.w	r3, r3, #1024	; 0x400
 8000922:	4298      	cmp	r0, r3
 8000924:	d011      	beq.n	800094a <GPIO_ReadInputData+0x56>
 8000926:	f503 6380 	add.w	r3, r3, #1024	; 0x400
 800092a:	4298      	cmp	r0, r3
 800092c:	d00d      	beq.n	800094a <GPIO_ReadInputData+0x56>
 800092e:	f503 6380 	add.w	r3, r3, #1024	; 0x400
 8000932:	4298      	cmp	r0, r3
 8000934:	d009      	beq.n	800094a <GPIO_ReadInputData+0x56>
 8000936:	4a09      	ldr	r2, [pc, #36]	; (800095c <GPIO_ReadInputData+0x68>)
 8000938:	1a81      	subs	r1, r0, r2
 800093a:	4248      	negs	r0, r1
 800093c:	eb40 0001 	adc.w	r0, r0, r1
 8000940:	f7ff fc88 	bl	8000254 <assert_param>
 8000944:	6923      	ldr	r3, [r4, #16]
 8000946:	b298      	uxth	r0, r3
 8000948:	bd10      	pop	{r4, pc}
 800094a:	2001      	movs	r0, #1
 800094c:	f7ff fc82 	bl	8000254 <assert_param>
 8000950:	6923      	ldr	r3, [r4, #16]
 8000952:	b298      	uxth	r0, r3
 8000954:	bd10      	pop	{r4, pc}
 8000956:	bf00      	nop
 8000958:	40020000 	andmi	r0, r2, r0
 800095c:	40022000 	andmi	r2, r2, r0

08000960 <GPIO_ReadOutputDataBit>:
 8000960:	b538      	push	{r3, r4, r5, lr}
 8000962:	4b34      	ldr	r3, [pc, #208]	; (8000a34 <GPIO_ReadOutputDataBit+0xd4>)
 8000964:	4298      	cmp	r0, r3
 8000966:	4604      	mov	r4, r0
 8000968:	460d      	mov	r5, r1
 800096a:	d031      	beq.n	80009d0 <GPIO_ReadOutputDataBit+0x70>
 800096c:	f503 6380 	add.w	r3, r3, #1024	; 0x400
 8000970:	4298      	cmp	r0, r3
 8000972:	d02d      	beq.n	80009d0 <GPIO_ReadOutputDataBit+0x70>
 8000974:	f503 6380 	add.w	r3, r3, #1024	; 0x400
 8000978:	4298      	cmp	r0, r3
 800097a:	d029      	beq.n	80009d0 <GPIO_ReadOutputDataBit+0x70>
 800097c:	f503 6380 	add.w	r3, r3, #1024	; 0x400
 8000980:	4298      	cmp	r0, r3
 8000982:	d025      	beq.n	80009d0 <GPIO_ReadOutputDataBit+0x70>
 8000984:	f503 6380 	add.w	r3, r3, #1024	; 0x400
 8000988:	4298      	cmp	r0, r3
 800098a:	d021      	beq.n	80009d0 <GPIO_ReadOutputDataBit+0x70>
 800098c:	f503 6380 	add.w	r3, r3, #1024	; 0x400
 8000990:	4298      	cmp	r0, r3
 8000992:	d01d      	beq.n	80009d0 <GPIO_ReadOutputDataBit+0x70>
 8000994:	f503 6380 	add.w	r3, r3, #1024	; 0x400
 8000998:	4298      	cmp	r0, r3
 800099a:	d019      	beq.n	80009d0 <GPIO_ReadOutputDataBit+0x70>
 800099c:	f503 6380 	add.w	r3, r3, #1024	; 0x400
 80009a0:	4298      	cmp	r0, r3
 80009a2:	d015      	beq.n	80009d0 <GPIO_ReadOutputDataBit+0x70>
 80009a4:	4a24      	ldr	r2, [pc, #144]	; (8000a38 <GPIO_ReadOutputDataBit+0xd8>)
 80009a6:	1a81      	subs	r1, r0, r2
 80009a8:	4248      	negs	r0, r1
 80009aa:	eb40 0001 	adc.w	r0, r0, r1
 80009ae:	f7ff fc51 	bl	8000254 <assert_param>
 80009b2:	1e6b      	subs	r3, r5, #1
 80009b4:	fa1f fc83 	uxth.w	ip, r3
 80009b8:	f1bc 0f01 	cmp.w	ip, #1
 80009bc:	d811      	bhi.n	80009e2 <GPIO_ReadOutputDataBit+0x82>
 80009be:	2001      	movs	r0, #1
 80009c0:	f7ff fc48 	bl	8000254 <assert_param>
 80009c4:	6961      	ldr	r1, [r4, #20]
 80009c6:	420d      	tst	r5, r1
 80009c8:	bf0c      	ite	eq
 80009ca:	2000      	moveq	r0, #0
 80009cc:	2001      	movne	r0, #1
 80009ce:	bd38      	pop	{r3, r4, r5, pc}
 80009d0:	2001      	movs	r0, #1
 80009d2:	f7ff fc3f 	bl	8000254 <assert_param>
 80009d6:	1e6b      	subs	r3, r5, #1
 80009d8:	fa1f fc83 	uxth.w	ip, r3
 80009dc:	f1bc 0f01 	cmp.w	ip, #1
 80009e0:	d9ed      	bls.n	80009be <GPIO_ReadOutputDataBit+0x5e>
 80009e2:	2d04      	cmp	r5, #4
 80009e4:	d0eb      	beq.n	80009be <GPIO_ReadOutputDataBit+0x5e>
 80009e6:	2d08      	cmp	r5, #8
 80009e8:	d0e9      	beq.n	80009be <GPIO_ReadOutputDataBit+0x5e>
 80009ea:	2d10      	cmp	r5, #16
 80009ec:	d0e7      	beq.n	80009be <GPIO_ReadOutputDataBit+0x5e>
 80009ee:	2d20      	cmp	r5, #32
 80009f0:	d0e5      	beq.n	80009be <GPIO_ReadOutputDataBit+0x5e>
 80009f2:	2d40      	cmp	r5, #64	; 0x40
 80009f4:	d0e3      	beq.n	80009be <GPIO_ReadOutputDataBit+0x5e>
 80009f6:	2d80      	cmp	r5, #128	; 0x80
 80009f8:	d0e1      	beq.n	80009be <GPIO_ReadOutputDataBit+0x5e>
 80009fa:	f5b5 7f80 	cmp.w	r5, #256	; 0x100
 80009fe:	d0de      	beq.n	80009be <GPIO_ReadOutputDataBit+0x5e>
 8000a00:	f5b5 7f00 	cmp.w	r5, #512	; 0x200
 8000a04:	d0db      	beq.n	80009be <GPIO_ReadOutputDataBit+0x5e>
 8000a06:	f5b5 6f80 	cmp.w	r5, #1024	; 0x400
 8000a0a:	d0d8      	beq.n	80009be <GPIO_ReadOutputDataBit+0x5e>
 8000a0c:	f5b5 6f00 	cmp.w	r5, #2048	; 0x800
 8000a10:	d0d5      	beq.n	80009be <GPIO_ReadOutputDataBit+0x5e>
 8000a12:	f5b5 5f80 	cmp.w	r5, #4096	; 0x1000
 8000a16:	d0d2      	beq.n	80009be <GPIO_ReadOutputDataBit+0x5e>
 8000a18:	f5b5 5f00 	cmp.w	r5, #8192	; 0x2000
 8000a1c:	d0cf      	beq.n	80009be <GPIO_ReadOutputDataBit+0x5e>
 8000a1e:	f5b5 4f80 	cmp.w	r5, #16384	; 0x4000
 8000a22:	d0cc      	beq.n	80009be <GPIO_ReadOutputDataBit+0x5e>
 8000a24:	f5a5 4000 	sub.w	r0, r5, #32768	; 0x8000
 8000a28:	f1d0 0e00 	rsbs	lr, r0, #0
 8000a2c:	eb4e 0000 	adc.w	r0, lr, r0
 8000a30:	e7c6      	b.n	80009c0 <GPIO_ReadOutputDataBit+0x60>
 8000a32:	bf00      	nop
 8000a34:	40020000 	andmi	r0, r2, r0
 8000a38:	40022000 	andmi	r2, r2, r0

08000a3c <GPIO_ReadOutputData>:
 8000a3c:	4b19      	ldr	r3, [pc, #100]	; (8000aa4 <GPIO_ReadOutputData+0x68>)
 8000a3e:	4298      	cmp	r0, r3
 8000a40:	b510      	push	{r4, lr}
 8000a42:	4604      	mov	r4, r0
 8000a44:	d027      	beq.n	8000a96 <GPIO_ReadOutputData+0x5a>
 8000a46:	f503 6380 	add.w	r3, r3, #1024	; 0x400
 8000a4a:	4298      	cmp	r0, r3
 8000a4c:	d023      	beq.n	8000a96 <GPIO_ReadOutputData+0x5a>
 8000a4e:	f503 6380 	add.w	r3, r3, #1024	; 0x400
 8000a52:	4298      	cmp	r0, r3
 8000a54:	d01f      	beq.n	8000a96 <GPIO_ReadOutputData+0x5a>
 8000a56:	f503 6380 	add.w	r3, r3, #1024	; 0x400
 8000a5a:	4298      	cmp	r0, r3
 8000a5c:	d01b      	beq.n	8000a96 <GPIO_ReadOutputData+0x5a>
 8000a5e:	f503 6380 	add.w	r3, r3, #1024	; 0x400
 8000a62:	4298      	cmp	r0, r3
 8000a64:	d017      	beq.n	8000a96 <GPIO_ReadOutputData+0x5a>
 8000a66:	f503 6380 	add.w	r3, r3, #1024	; 0x400
 8000a6a:	4298      	cmp	r0, r3
 8000a6c:	d013      	beq.n	8000a96 <GPIO_ReadOutputData+0x5a>
 8000a6e:	f503 6380 	add.w	r3, r3, #1024	; 0x400
 8000a72:	4298      	cmp	r0, r3
 8000a74:	d00f      	beq.n	8000a96 <GPIO_ReadOutputData+0x5a>
 8000a76:	f503 6380 	add.w	r3, r3, #1024	; 0x400
 8000a7a:	4298      	cmp	r0, r3
 8000a7c:	d00b      	beq.n	8000a96 <GPIO_ReadOutputData+0x5a>
 8000a7e:	490a      	ldr	r1, [pc, #40]	; (8000aa8 <GPIO_ReadOutputData+0x6c>)
 8000a80:	ebc1 0e00 	rsb	lr, r1, r0
 8000a84:	f1de 0000 	rsbs	r0, lr, #0
 8000a88:	eb40 000e 	adc.w	r0, r0, lr
 8000a8c:	f7ff fbe2 	bl	8000254 <assert_param>
 8000a90:	6962      	ldr	r2, [r4, #20]
 8000a92:	b290      	uxth	r0, r2
 8000a94:	bd10      	pop	{r4, pc}
 8000a96:	2001      	movs	r0, #1
 8000a98:	f7ff fbdc 	bl	8000254 <assert_param>
 8000a9c:	6962      	ldr	r2, [r4, #20]
 8000a9e:	b290      	uxth	r0, r2
 8000aa0:	bd10      	pop	{r4, pc}
 8000aa2:	bf00      	nop
 8000aa4:	40020000 	andmi	r0, r2, r0
 8000aa8:	40022000 	andmi	r2, r2, r0

08000aac <GPIO_SetBits>:
 8000aac:	b538      	push	{r3, r4, r5, lr}
 8000aae:	4b19      	ldr	r3, [pc, #100]	; (8000b14 <GPIO_SetBits+0x68>)
 8000ab0:	4298      	cmp	r0, r3
 8000ab2:	4604      	mov	r4, r0
 8000ab4:	460d      	mov	r5, r1
 8000ab6:	d023      	beq.n	8000b00 <GPIO_SetBits+0x54>
 8000ab8:	f503 6380 	add.w	r3, r3, #1024	; 0x400
 8000abc:	4298      	cmp	r0, r3
 8000abe:	d01f      	beq.n	8000b00 <GPIO_SetBits+0x54>
 8000ac0:	f503 6380 	add.w	r3, r3, #1024	; 0x400
 8000ac4:	4298      	cmp	r0, r3
 8000ac6:	d01b      	beq.n	8000b00 <GPIO_SetBits+0x54>
 8000ac8:	f503 6380 	add.w	r3, r3, #1024	; 0x400
 8000acc:	4298      	cmp	r0, r3
 8000ace:	d017      	beq.n	8000b00 <GPIO_SetBits+0x54>
 8000ad0:	f503 6380 	add.w	r3, r3, #1024	; 0x400
 8000ad4:	4298      	cmp	r0, r3
 8000ad6:	d013      	beq.n	8000b00 <GPIO_SetBits+0x54>
 8000ad8:	f503 6380 	add.w	r3, r3, #1024	; 0x400
 8000adc:	4298      	cmp	r0, r3
 8000ade:	d00f      	beq.n	8000b00 <GPIO_SetBits+0x54>
 8000ae0:	f503 6380 	add.w	r3, r3, #1024	; 0x400
 8000ae4:	4298      	cmp	r0, r3
 8000ae6:	d00b      	beq.n	8000b00 <GPIO_SetBits+0x54>
 8000ae8:	f503 6380 	add.w	r3, r3, #1024	; 0x400
 8000aec:	4298      	cmp	r0, r3
 8000aee:	d007      	beq.n	8000b00 <GPIO_SetBits+0x54>
 8000af0:	4909      	ldr	r1, [pc, #36]	; (8000b18 <GPIO_SetBits+0x6c>)
 8000af2:	ebc1 0c00 	rsb	ip, r1, r0
 8000af6:	f1dc 0000 	rsbs	r0, ip, #0
 8000afa:	eb40 000c 	adc.w	r0, r0, ip
 8000afe:	e000      	b.n	8000b02 <GPIO_SetBits+0x56>
 8000b00:	2001      	movs	r0, #1
 8000b02:	f7ff fba7 	bl	8000254 <assert_param>
 8000b06:	1e28      	subs	r0, r5, #0
 8000b08:	bf18      	it	ne
 8000b0a:	2001      	movne	r0, #1
 8000b0c:	f7ff fba2 	bl	8000254 <assert_param>
 8000b10:	8325      	strh	r5, [r4, #24]
 8000b12:	bd38      	pop	{r3, r4, r5, pc}
 8000b14:	40020000 	andmi	r0, r2, r0
 8000b18:	40022000 	andmi	r2, r2, r0

08000b1c <GPIO_ResetBits>:
 8000b1c:	b538      	push	{r3, r4, r5, lr}
 8000b1e:	4b18      	ldr	r3, [pc, #96]	; (8000b80 <GPIO_ResetBits+0x64>)
 8000b20:	4298      	cmp	r0, r3
 8000b22:	4604      	mov	r4, r0
 8000b24:	460d      	mov	r5, r1
 8000b26:	d021      	beq.n	8000b6c <GPIO_ResetBits+0x50>
 8000b28:	f503 6380 	add.w	r3, r3, #1024	; 0x400
 8000b2c:	4298      	cmp	r0, r3
 8000b2e:	d01d      	beq.n	8000b6c <GPIO_ResetBits+0x50>
 8000b30:	f503 6380 	add.w	r3, r3, #1024	; 0x400
 8000b34:	4298      	cmp	r0, r3
 8000b36:	d019      	beq.n	8000b6c <GPIO_ResetBits+0x50>
 8000b38:	f503 6380 	add.w	r3, r3, #1024	; 0x400
 8000b3c:	4298      	cmp	r0, r3
 8000b3e:	d015      	beq.n	8000b6c <GPIO_ResetBits+0x50>
 8000b40:	f503 6380 	add.w	r3, r3, #1024	; 0x400
 8000b44:	4298      	cmp	r0, r3
 8000b46:	d011      	beq.n	8000b6c <GPIO_ResetBits+0x50>
 8000b48:	f503 6380 	add.w	r3, r3, #1024	; 0x400
 8000b4c:	4298      	cmp	r0, r3
 8000b4e:	d00d      	beq.n	8000b6c <GPIO_ResetBits+0x50>
 8000b50:	f503 6380 	add.w	r3, r3, #1024	; 0x400
 8000b54:	4298      	cmp	r0, r3
 8000b56:	d009      	beq.n	8000b6c <GPIO_ResetBits+0x50>
 8000b58:	f503 6380 	add.w	r3, r3, #1024	; 0x400
 8000b5c:	4298      	cmp	r0, r3
 8000b5e:	d005      	beq.n	8000b6c <GPIO_ResetBits+0x50>
 8000b60:	4a08      	ldr	r2, [pc, #32]	; (8000b84 <GPIO_ResetBits+0x68>)
 8000b62:	1a81      	subs	r1, r0, r2
 8000b64:	4248      	negs	r0, r1
 8000b66:	eb40 0001 	adc.w	r0, r0, r1
 8000b6a:	e000      	b.n	8000b6e <GPIO_ResetBits+0x52>
 8000b6c:	2001      	movs	r0, #1
 8000b6e:	f7ff fb71 	bl	8000254 <assert_param>
 8000b72:	1e28      	subs	r0, r5, #0
 8000b74:	bf18      	it	ne
 8000b76:	2001      	movne	r0, #1
 8000b78:	f7ff fb6c 	bl	8000254 <assert_param>
 8000b7c:	8365      	strh	r5, [r4, #26]
 8000b7e:	bd38      	pop	{r3, r4, r5, pc}
 8000b80:	40020000 	andmi	r0, r2, r0
 8000b84:	40022000 	andmi	r2, r2, r0

08000b88 <GPIO_WriteBit>:
 8000b88:	4b37      	ldr	r3, [pc, #220]	; (8000c68 <GPIO_WriteBit+0xe0>)
 8000b8a:	4298      	cmp	r0, r3
 8000b8c:	b570      	push	{r4, r5, r6, lr}
 8000b8e:	4604      	mov	r4, r0
 8000b90:	460d      	mov	r5, r1
 8000b92:	4616      	mov	r6, r2
 8000b94:	d035      	beq.n	8000c02 <GPIO_WriteBit+0x7a>
 8000b96:	f503 6380 	add.w	r3, r3, #1024	; 0x400
 8000b9a:	4298      	cmp	r0, r3
 8000b9c:	d031      	beq.n	8000c02 <GPIO_WriteBit+0x7a>
 8000b9e:	f503 6380 	add.w	r3, r3, #1024	; 0x400
 8000ba2:	4298      	cmp	r0, r3
 8000ba4:	d02d      	beq.n	8000c02 <GPIO_WriteBit+0x7a>
 8000ba6:	f503 6380 	add.w	r3, r3, #1024	; 0x400
 8000baa:	4298      	cmp	r0, r3
 8000bac:	d029      	beq.n	8000c02 <GPIO_WriteBit+0x7a>
 8000bae:	f503 6380 	add.w	r3, r3, #1024	; 0x400
 8000bb2:	4298      	cmp	r0, r3
 8000bb4:	d025      	beq.n	8000c02 <GPIO_WriteBit+0x7a>
 8000bb6:	f503 6380 	add.w	r3, r3, #1024	; 0x400
 8000bba:	4298      	cmp	r0, r3
 8000bbc:	d021      	beq.n	8000c02 <GPIO_WriteBit+0x7a>
 8000bbe:	f503 6380 	add.w	r3, r3, #1024	; 0x400
 8000bc2:	4298      	cmp	r0, r3
 8000bc4:	d01d      	beq.n	8000c02 <GPIO_WriteBit+0x7a>
 8000bc6:	f503 6380 	add.w	r3, r3, #1024	; 0x400
 8000bca:	4298      	cmp	r0, r3
 8000bcc:	d019      	beq.n	8000c02 <GPIO_WriteBit+0x7a>
 8000bce:	4a27      	ldr	r2, [pc, #156]	; (8000c6c <GPIO_WriteBit+0xe4>)
 8000bd0:	1a81      	subs	r1, r0, r2
 8000bd2:	4248      	negs	r0, r1
 8000bd4:	eb40 0001 	adc.w	r0, r0, r1
 8000bd8:	f7ff fb3c 	bl	8000254 <assert_param>
 8000bdc:	1e6b      	subs	r3, r5, #1
 8000bde:	fa1f fc83 	uxth.w	ip, r3
 8000be2:	f1bc 0f01 	cmp.w	ip, #1
 8000be6:	d815      	bhi.n	8000c14 <GPIO_WriteBit+0x8c>
 8000be8:	2001      	movs	r0, #1
 8000bea:	f7ff fb33 	bl	8000254 <assert_param>
 8000bee:	2e01      	cmp	r6, #1
 8000bf0:	bf8c      	ite	hi
 8000bf2:	2000      	movhi	r0, #0
 8000bf4:	2001      	movls	r0, #1
 8000bf6:	f7ff fb2d 	bl	8000254 <assert_param>
 8000bfa:	2e00      	cmp	r6, #0
 8000bfc:	d132      	bne.n	8000c64 <GPIO_WriteBit+0xdc>
 8000bfe:	8365      	strh	r5, [r4, #26]
 8000c00:	bd70      	pop	{r4, r5, r6, pc}
 8000c02:	2001      	movs	r0, #1
 8000c04:	f7ff fb26 	bl	8000254 <assert_param>
 8000c08:	1e6b      	subs	r3, r5, #1
 8000c0a:	fa1f fc83 	uxth.w	ip, r3
 8000c0e:	f1bc 0f01 	cmp.w	ip, #1
 8000c12:	d9e9      	bls.n	8000be8 <GPIO_WriteBit+0x60>
 8000c14:	2d04      	cmp	r5, #4
 8000c16:	d0e7      	beq.n	8000be8 <GPIO_WriteBit+0x60>
 8000c18:	2d08      	cmp	r5, #8
 8000c1a:	d0e5      	beq.n	8000be8 <GPIO_WriteBit+0x60>
 8000c1c:	2d10      	cmp	r5, #16
 8000c1e:	d0e3      	beq.n	8000be8 <GPIO_WriteBit+0x60>
 8000c20:	2d20      	cmp	r5, #32
 8000c22:	d0e1      	beq.n	8000be8 <GPIO_WriteBit+0x60>
 8000c24:	2d40      	cmp	r5, #64	; 0x40
 8000c26:	d0df      	beq.n	8000be8 <GPIO_WriteBit+0x60>
 8000c28:	2d80      	cmp	r5, #128	; 0x80
 8000c2a:	d0dd      	beq.n	8000be8 <GPIO_WriteBit+0x60>
 8000c2c:	f5b5 7f80 	cmp.w	r5, #256	; 0x100
 8000c30:	d0da      	beq.n	8000be8 <GPIO_WriteBit+0x60>
 8000c32:	f5b5 7f00 	cmp.w	r5, #512	; 0x200
 8000c36:	d0d7      	beq.n	8000be8 <GPIO_WriteBit+0x60>
 8000c38:	f5b5 6f80 	cmp.w	r5, #1024	; 0x400
 8000c3c:	d0d4      	beq.n	8000be8 <GPIO_WriteBit+0x60>
 8000c3e:	f5b5 6f00 	cmp.w	r5, #2048	; 0x800
 8000c42:	d0d1      	beq.n	8000be8 <GPIO_WriteBit+0x60>
 8000c44:	f5b5 5f80 	cmp.w	r5, #4096	; 0x1000
 8000c48:	d0ce      	beq.n	8000be8 <GPIO_WriteBit+0x60>
 8000c4a:	f5b5 5f00 	cmp.w	r5, #8192	; 0x2000
 8000c4e:	d0cb      	beq.n	8000be8 <GPIO_WriteBit+0x60>
 8000c50:	f5b5 4f80 	cmp.w	r5, #16384	; 0x4000
 8000c54:	d0c8      	beq.n	8000be8 <GPIO_WriteBit+0x60>
 8000c56:	f5a5 4000 	sub.w	r0, r5, #32768	; 0x8000
 8000c5a:	f1d0 0e00 	rsbs	lr, r0, #0
 8000c5e:	eb4e 0000 	adc.w	r0, lr, r0
 8000c62:	e7c2      	b.n	8000bea <GPIO_WriteBit+0x62>
 8000c64:	8325      	strh	r5, [r4, #24]
 8000c66:	bd70      	pop	{r4, r5, r6, pc}
 8000c68:	40020000 	andmi	r0, r2, r0
 8000c6c:	40022000 	andmi	r2, r2, r0

08000c70 <GPIO_Write>:
 8000c70:	b538      	push	{r3, r4, r5, lr}
 8000c72:	4b18      	ldr	r3, [pc, #96]	; (8000cd4 <GPIO_Write+0x64>)
 8000c74:	4298      	cmp	r0, r3
 8000c76:	4604      	mov	r4, r0
 8000c78:	460d      	mov	r5, r1
 8000c7a:	d026      	beq.n	8000cca <GPIO_Write+0x5a>
 8000c7c:	f503 6380 	add.w	r3, r3, #1024	; 0x400
 8000c80:	4298      	cmp	r0, r3
 8000c82:	d022      	beq.n	8000cca <GPIO_Write+0x5a>
 8000c84:	f503 6380 	add.w	r3, r3, #1024	; 0x400
 8000c88:	4298      	cmp	r0, r3
 8000c8a:	d01e      	beq.n	8000cca <GPIO_Write+0x5a>
 8000c8c:	f503 6380 	add.w	r3, r3, #1024	; 0x400
 8000c90:	4298      	cmp	r0, r3
 8000c92:	d01a      	beq.n	8000cca <GPIO_Write+0x5a>
 8000c94:	f503 6380 	add.w	r3, r3, #1024	; 0x400
 8000c98:	4298      	cmp	r0, r3
 8000c9a:	d016      	beq.n	8000cca <GPIO_Write+0x5a>
 8000c9c:	f503 6380 	add.w	r3, r3, #1024	; 0x400
 8000ca0:	4298      	cmp	r0, r3
 8000ca2:	d012      	beq.n	8000cca <GPIO_Write+0x5a>
 8000ca4:	f503 6380 	add.w	r3, r3, #1024	; 0x400
 8000ca8:	4298      	cmp	r0, r3
 8000caa:	d00e      	beq.n	8000cca <GPIO_Write+0x5a>
 8000cac:	f503 6380 	add.w	r3, r3, #1024	; 0x400
 8000cb0:	4298      	cmp	r0, r3
 8000cb2:	d00a      	beq.n	8000cca <GPIO_Write+0x5a>
 8000cb4:	4908      	ldr	r1, [pc, #32]	; (8000cd8 <GPIO_Write+0x68>)
 8000cb6:	ebc1 0e00 	rsb	lr, r1, r0
 8000cba:	f1de 0000 	rsbs	r0, lr, #0
 8000cbe:	eb40 000e 	adc.w	r0, r0, lr
 8000cc2:	f7ff fac7 	bl	8000254 <assert_param>
 8000cc6:	6165      	str	r5, [r4, #20]
 8000cc8:	bd38      	pop	{r3, r4, r5, pc}
 8000cca:	2001      	movs	r0, #1
 8000ccc:	f7ff fac2 	bl	8000254 <assert_param>
 8000cd0:	6165      	str	r5, [r4, #20]
 8000cd2:	bd38      	pop	{r3, r4, r5, pc}
 8000cd4:	40020000 	andmi	r0, r2, r0
 8000cd8:	40022000 	andmi	r2, r2, r0

08000cdc <GPIO_ToggleBits>:
 8000cdc:	b538      	push	{r3, r4, r5, lr}
 8000cde:	4b1a      	ldr	r3, [pc, #104]	; (8000d48 <GPIO_ToggleBits+0x6c>)
 8000ce0:	4298      	cmp	r0, r3
 8000ce2:	4604      	mov	r4, r0
 8000ce4:	460d      	mov	r5, r1
 8000ce6:	d028      	beq.n	8000d3a <GPIO_ToggleBits+0x5e>
 8000ce8:	f503 6380 	add.w	r3, r3, #1024	; 0x400
 8000cec:	4298      	cmp	r0, r3
 8000cee:	d024      	beq.n	8000d3a <GPIO_ToggleBits+0x5e>
 8000cf0:	f503 6380 	add.w	r3, r3, #1024	; 0x400
 8000cf4:	4298      	cmp	r0, r3
 8000cf6:	d020      	beq.n	8000d3a <GPIO_ToggleBits+0x5e>
 8000cf8:	f503 6380 	add.w	r3, r3, #1024	; 0x400
 8000cfc:	4298      	cmp	r0, r3
 8000cfe:	d01c      	beq.n	8000d3a <GPIO_ToggleBits+0x5e>
 8000d00:	f503 6380 	add.w	r3, r3, #1024	; 0x400
 8000d04:	4298      	cmp	r0, r3
 8000d06:	d018      	beq.n	8000d3a <GPIO_ToggleBits+0x5e>
 8000d08:	f503 6380 	add.w	r3, r3, #1024	; 0x400
 8000d0c:	4298      	cmp	r0, r3
 8000d0e:	d014      	beq.n	8000d3a <GPIO_ToggleBits+0x5e>
 8000d10:	f503 6380 	add.w	r3, r3, #1024	; 0x400
 8000d14:	4298      	cmp	r0, r3
 8000d16:	d010      	beq.n	8000d3a <GPIO_ToggleBits+0x5e>
 8000d18:	f503 6380 	add.w	r3, r3, #1024	; 0x400
 8000d1c:	4298      	cmp	r0, r3
 8000d1e:	d00c      	beq.n	8000d3a <GPIO_ToggleBits+0x5e>
 8000d20:	490a      	ldr	r1, [pc, #40]	; (8000d4c <GPIO_ToggleBits+0x70>)
 8000d22:	ebc1 0c00 	rsb	ip, r1, r0
 8000d26:	f1dc 0000 	rsbs	r0, ip, #0
 8000d2a:	eb40 000c 	adc.w	r0, r0, ip
 8000d2e:	f7ff fa91 	bl	8000254 <assert_param>
 8000d32:	6962      	ldr	r2, [r4, #20]
 8000d34:	4055      	eors	r5, r2
 8000d36:	6165      	str	r5, [r4, #20]
 8000d38:	bd38      	pop	{r3, r4, r5, pc}
 8000d3a:	2001      	movs	r0, #1
 8000d3c:	f7ff fa8a 	bl	8000254 <assert_param>
 8000d40:	6962      	ldr	r2, [r4, #20]
 8000d42:	4055      	eors	r5, r2
 8000d44:	6165      	str	r5, [r4, #20]
 8000d46:	bd38      	pop	{r3, r4, r5, pc}
 8000d48:	40020000 	andmi	r0, r2, r0
 8000d4c:	40022000 	andmi	r2, r2, r0

08000d50 <GPIO_PinAFConfig>:
 8000d50:	4b3b      	ldr	r3, [pc, #236]	; (8000e40 <GPIO_PinAFConfig+0xf0>)
 8000d52:	4298      	cmp	r0, r3
 8000d54:	b570      	push	{r4, r5, r6, lr}
 8000d56:	4604      	mov	r4, r0
 8000d58:	460d      	mov	r5, r1
 8000d5a:	4616      	mov	r6, r2
 8000d5c:	d042      	beq.n	8000de4 <GPIO_PinAFConfig+0x94>
 8000d5e:	f503 6380 	add.w	r3, r3, #1024	; 0x400
 8000d62:	4298      	cmp	r0, r3
 8000d64:	d03e      	beq.n	8000de4 <GPIO_PinAFConfig+0x94>
 8000d66:	f503 6380 	add.w	r3, r3, #1024	; 0x400
 8000d6a:	4298      	cmp	r0, r3
 8000d6c:	d03a      	beq.n	8000de4 <GPIO_PinAFConfig+0x94>
 8000d6e:	f503 6380 	add.w	r3, r3, #1024	; 0x400
 8000d72:	4298      	cmp	r0, r3
 8000d74:	d036      	beq.n	8000de4 <GPIO_PinAFConfig+0x94>
 8000d76:	f503 6380 	add.w	r3, r3, #1024	; 0x400
 8000d7a:	4298      	cmp	r0, r3
 8000d7c:	d032      	beq.n	8000de4 <GPIO_PinAFConfig+0x94>
 8000d7e:	f503 6380 	add.w	r3, r3, #1024	; 0x400
 8000d82:	4298      	cmp	r0, r3
 8000d84:	d02e      	beq.n	8000de4 <GPIO_PinAFConfig+0x94>
 8000d86:	f503 6380 	add.w	r3, r3, #1024	; 0x400
 8000d8a:	4298      	cmp	r0, r3
 8000d8c:	d02a      	beq.n	8000de4 <GPIO_PinAFConfig+0x94>
 8000d8e:	f503 6380 	add.w	r3, r3, #1024	; 0x400
 8000d92:	4298      	cmp	r0, r3
 8000d94:	d026      	beq.n	8000de4 <GPIO_PinAFConfig+0x94>
 8000d96:	492b      	ldr	r1, [pc, #172]	; (8000e44 <GPIO_PinAFConfig+0xf4>)
 8000d98:	1a42      	subs	r2, r0, r1
 8000d9a:	4250      	negs	r0, r2
 8000d9c:	eb40 0002 	adc.w	r0, r0, r2
 8000da0:	f7ff fa58 	bl	8000254 <assert_param>
 8000da4:	2d0f      	cmp	r5, #15
 8000da6:	bf8c      	ite	hi
 8000da8:	2000      	movhi	r0, #0
 8000daa:	2001      	movls	r0, #1
 8000dac:	f7ff fa52 	bl	8000254 <assert_param>
 8000db0:	bb1e      	cbnz	r6, 8000dfa <GPIO_PinAFConfig+0xaa>
 8000db2:	2001      	movs	r0, #1
 8000db4:	f7ff fa4e 	bl	8000254 <assert_param>
 8000db8:	08eb      	lsrs	r3, r5, #3
 8000dba:	3308      	adds	r3, #8
 8000dbc:	f005 0507 	and.w	r5, r5, #7
 8000dc0:	f854 1023 	ldr.w	r1, [r4, r3, lsl #2]
 8000dc4:	00ad      	lsls	r5, r5, #2
 8000dc6:	220f      	movs	r2, #15
 8000dc8:	fa12 f005 	lsls.w	r0, r2, r5
 8000dcc:	ea21 0200 	bic.w	r2, r1, r0
 8000dd0:	f844 2023 	str.w	r2, [r4, r3, lsl #2]
 8000dd4:	f854 0023 	ldr.w	r0, [r4, r3, lsl #2]
 8000dd8:	fa16 f505 	lsls.w	r5, r6, r5
 8000ddc:	4305      	orrs	r5, r0
 8000dde:	f844 5023 	str.w	r5, [r4, r3, lsl #2]
 8000de2:	bd70      	pop	{r4, r5, r6, pc}
 8000de4:	2001      	movs	r0, #1
 8000de6:	f7ff fa35 	bl	8000254 <assert_param>
 8000dea:	2d0f      	cmp	r5, #15
 8000dec:	bf8c      	ite	hi
 8000dee:	2000      	movhi	r0, #0
 8000df0:	2001      	movls	r0, #1
 8000df2:	f7ff fa2f 	bl	8000254 <assert_param>
 8000df6:	2e00      	cmp	r6, #0
 8000df8:	d0db      	beq.n	8000db2 <GPIO_PinAFConfig+0x62>
 8000dfa:	2e09      	cmp	r6, #9
 8000dfc:	d0d9      	beq.n	8000db2 <GPIO_PinAFConfig+0x62>
 8000dfe:	2e01      	cmp	r6, #1
 8000e00:	d01c      	beq.n	8000e3c <GPIO_PinAFConfig+0xec>
 8000e02:	2e02      	cmp	r6, #2
 8000e04:	d0d5      	beq.n	8000db2 <GPIO_PinAFConfig+0x62>
 8000e06:	2e03      	cmp	r6, #3
 8000e08:	d0d3      	beq.n	8000db2 <GPIO_PinAFConfig+0x62>
 8000e0a:	2e04      	cmp	r6, #4
 8000e0c:	d0d1      	beq.n	8000db2 <GPIO_PinAFConfig+0x62>
 8000e0e:	2e05      	cmp	r6, #5
 8000e10:	d0cf      	beq.n	8000db2 <GPIO_PinAFConfig+0x62>
 8000e12:	2e06      	cmp	r6, #6
 8000e14:	d0cd      	beq.n	8000db2 <GPIO_PinAFConfig+0x62>
 8000e16:	2e07      	cmp	r6, #7
 8000e18:	d0cb      	beq.n	8000db2 <GPIO_PinAFConfig+0x62>
 8000e1a:	2e08      	cmp	r6, #8
 8000e1c:	d0c9      	beq.n	8000db2 <GPIO_PinAFConfig+0x62>
 8000e1e:	2e0a      	cmp	r6, #10
 8000e20:	d0c7      	beq.n	8000db2 <GPIO_PinAFConfig+0x62>
 8000e22:	2e0b      	cmp	r6, #11
 8000e24:	d0c5      	beq.n	8000db2 <GPIO_PinAFConfig+0x62>
 8000e26:	2e0c      	cmp	r6, #12
 8000e28:	d0c3      	beq.n	8000db2 <GPIO_PinAFConfig+0x62>
 8000e2a:	2e0d      	cmp	r6, #13
 8000e2c:	d0c1      	beq.n	8000db2 <GPIO_PinAFConfig+0x62>
 8000e2e:	f1a6 0e0f 	sub.w	lr, r6, #15
 8000e32:	f1de 0c00 	rsbs	ip, lr, #0
 8000e36:	eb4c 000e 	adc.w	r0, ip, lr
 8000e3a:	e7bb      	b.n	8000db4 <GPIO_PinAFConfig+0x64>
 8000e3c:	4630      	mov	r0, r6
 8000e3e:	e7b9      	b.n	8000db4 <GPIO_PinAFConfig+0x64>
 8000e40:	40020000 	andmi	r0, r2, r0
 8000e44:	40022000 	andmi	r2, r2, r0

08000e48 <RCC_DeInit>:
 8000e48:	4b0a      	ldr	r3, [pc, #40]	; (8000e74 <RCC_DeInit+0x2c>)
 8000e4a:	6819      	ldr	r1, [r3, #0]
 8000e4c:	2200      	movs	r2, #0
 8000e4e:	f041 0001 	orr.w	r0, r1, #1
 8000e52:	6018      	str	r0, [r3, #0]
 8000e54:	609a      	str	r2, [r3, #8]
 8000e56:	6819      	ldr	r1, [r3, #0]
 8000e58:	f021 7c84 	bic.w	ip, r1, #17301504	; 0x1080000
 8000e5c:	4906      	ldr	r1, [pc, #24]	; (8000e78 <RCC_DeInit+0x30>)
 8000e5e:	f42c 3080 	bic.w	r0, ip, #65536	; 0x10000
 8000e62:	6018      	str	r0, [r3, #0]
 8000e64:	6059      	str	r1, [r3, #4]
 8000e66:	6818      	ldr	r0, [r3, #0]
 8000e68:	f420 2180 	bic.w	r1, r0, #262144	; 0x40000
 8000e6c:	6019      	str	r1, [r3, #0]
 8000e6e:	60da      	str	r2, [r3, #12]
 8000e70:	4770      	bx	lr
 8000e72:	bf00      	nop
 8000e74:	40023800 	andmi	r3, r2, r0, lsl #16
 8000e78:	24003010 	strcs	r3, [r0], #-16

08000e7c <RCC_HSEConfig>:
 8000e7c:	2801      	cmp	r0, #1
 8000e7e:	b510      	push	{r4, lr}
 8000e80:	4604      	mov	r4, r0
 8000e82:	d90b      	bls.n	8000e9c <RCC_HSEConfig+0x20>
 8000e84:	f1a0 0305 	sub.w	r3, r0, #5
 8000e88:	4258      	negs	r0, r3
 8000e8a:	eb40 0003 	adc.w	r0, r0, r3
 8000e8e:	f7ff f9e1 	bl	8000254 <assert_param>
 8000e92:	4906      	ldr	r1, [pc, #24]	; (8000eac <RCC_HSEConfig+0x30>)
 8000e94:	2200      	movs	r2, #0
 8000e96:	700a      	strb	r2, [r1, #0]
 8000e98:	700c      	strb	r4, [r1, #0]
 8000e9a:	bd10      	pop	{r4, pc}
 8000e9c:	2001      	movs	r0, #1
 8000e9e:	f7ff f9d9 	bl	8000254 <assert_param>
 8000ea2:	4902      	ldr	r1, [pc, #8]	; (8000eac <RCC_HSEConfig+0x30>)
 8000ea4:	2200      	movs	r2, #0
 8000ea6:	700a      	strb	r2, [r1, #0]
 8000ea8:	700c      	strb	r4, [r1, #0]
 8000eaa:	bd10      	pop	{r4, pc}
 8000eac:	40023802 	andmi	r3, r2, r2, lsl #16

08000eb0 <RCC_AdjustHSICalibrationValue>:
 8000eb0:	281f      	cmp	r0, #31
 8000eb2:	b510      	push	{r4, lr}
 8000eb4:	4604      	mov	r4, r0
 8000eb6:	bf8c      	ite	hi
 8000eb8:	2000      	movhi	r0, #0
 8000eba:	2001      	movls	r0, #1
 8000ebc:	f7ff f9ca 	bl	8000254 <assert_param>
 8000ec0:	4b03      	ldr	r3, [pc, #12]	; (8000ed0 <RCC_AdjustHSICalibrationValue+0x20>)
 8000ec2:	6818      	ldr	r0, [r3, #0]
 8000ec4:	f020 02f8 	bic.w	r2, r0, #248	; 0xf8
 8000ec8:	ea42 04c4 	orr.w	r4, r2, r4, lsl #3
 8000ecc:	601c      	str	r4, [r3, #0]
 8000ece:	bd10      	pop	{r4, pc}
 8000ed0:	40023800 	andmi	r3, r2, r0, lsl #16

08000ed4 <RCC_HSICmd>:
 8000ed4:	2801      	cmp	r0, #1
 8000ed6:	b510      	push	{r4, lr}
 8000ed8:	4604      	mov	r4, r0
 8000eda:	bf8c      	ite	hi
 8000edc:	2000      	movhi	r0, #0
 8000ede:	2001      	movls	r0, #1
 8000ee0:	f7ff f9b8 	bl	8000254 <assert_param>
 8000ee4:	4b01      	ldr	r3, [pc, #4]	; (8000eec <RCC_HSICmd+0x18>)
 8000ee6:	601c      	str	r4, [r3, #0]
 8000ee8:	bd10      	pop	{r4, pc}
 8000eea:	bf00      	nop
 8000eec:	42470000 	submi	r0, r7, #0

08000ef0 <RCC_LSEConfig>:
 8000ef0:	2801      	cmp	r0, #1
 8000ef2:	b510      	push	{r4, lr}
 8000ef4:	4604      	mov	r4, r0
 8000ef6:	d913      	bls.n	8000f20 <RCC_LSEConfig+0x30>
 8000ef8:	f1a0 0204 	sub.w	r2, r0, #4
 8000efc:	4250      	negs	r0, r2
 8000efe:	eb40 0002 	adc.w	r0, r0, r2
 8000f02:	f7ff f9a7 	bl	8000254 <assert_param>
 8000f06:	4b07      	ldr	r3, [pc, #28]	; (8000f24 <RCC_LSEConfig+0x34>)
 8000f08:	2100      	movs	r1, #0
 8000f0a:	2c01      	cmp	r4, #1
 8000f0c:	7019      	strb	r1, [r3, #0]
 8000f0e:	7019      	strb	r1, [r3, #0]
 8000f10:	d004      	beq.n	8000f1c <RCC_LSEConfig+0x2c>
 8000f12:	2c04      	cmp	r4, #4
 8000f14:	d101      	bne.n	8000f1a <RCC_LSEConfig+0x2a>
 8000f16:	2005      	movs	r0, #5
 8000f18:	7018      	strb	r0, [r3, #0]
 8000f1a:	bd10      	pop	{r4, pc}
 8000f1c:	701c      	strb	r4, [r3, #0]
 8000f1e:	bd10      	pop	{r4, pc}
 8000f20:	2001      	movs	r0, #1
 8000f22:	e7ee      	b.n	8000f02 <RCC_LSEConfig+0x12>
 8000f24:	40023870 	andmi	r3, r2, r0, ror r8

08000f28 <RCC_LSICmd>:
 8000f28:	2801      	cmp	r0, #1
 8000f2a:	b510      	push	{r4, lr}
 8000f2c:	4604      	mov	r4, r0
 8000f2e:	bf8c      	ite	hi
 8000f30:	2000      	movhi	r0, #0
 8000f32:	2001      	movls	r0, #1
 8000f34:	f7ff f98e 	bl	8000254 <assert_param>
 8000f38:	4b01      	ldr	r3, [pc, #4]	; (8000f40 <RCC_LSICmd+0x18>)
 8000f3a:	601c      	str	r4, [r3, #0]
 8000f3c:	bd10      	pop	{r4, pc}
 8000f3e:	bf00      	nop
 8000f40:	42470e80 	submi	r0, r7, #128, 28	; 0x800

08000f44 <RCC_PLLConfig>:
 8000f44:	e92d 41f0 	stmdb	sp!, {r4, r5, r6, r7, r8, lr}
 8000f48:	f8dd 8018 	ldr.w	r8, [sp, #24]
 8000f4c:	4604      	mov	r4, r0
 8000f4e:	460d      	mov	r5, r1
 8000f50:	4616      	mov	r6, r2
 8000f52:	461f      	mov	r7, r3
 8000f54:	2800      	cmp	r0, #0
 8000f56:	d038      	beq.n	8000fca <RCC_PLLConfig+0x86>
 8000f58:	f5a0 0e80 	sub.w	lr, r0, #4194304	; 0x400000
 8000f5c:	f1de 0000 	rsbs	r0, lr, #0
 8000f60:	eb40 000e 	adc.w	r0, r0, lr
 8000f64:	f7ff f976 	bl	8000254 <assert_param>
 8000f68:	2d3f      	cmp	r5, #63	; 0x3f
 8000f6a:	bf8c      	ite	hi
 8000f6c:	2000      	movhi	r0, #0
 8000f6e:	2001      	movls	r0, #1
 8000f70:	f7ff f970 	bl	8000254 <assert_param>
 8000f74:	f1a6 00c0 	sub.w	r0, r6, #192	; 0xc0
 8000f78:	28f0      	cmp	r0, #240	; 0xf0
 8000f7a:	bf8c      	ite	hi
 8000f7c:	2000      	movhi	r0, #0
 8000f7e:	2001      	movls	r0, #1
 8000f80:	f7ff f968 	bl	8000254 <assert_param>
 8000f84:	2f02      	cmp	r7, #2
 8000f86:	d022      	beq.n	8000fce <RCC_PLLConfig+0x8a>
 8000f88:	2f04      	cmp	r7, #4
 8000f8a:	d020      	beq.n	8000fce <RCC_PLLConfig+0x8a>
 8000f8c:	2f06      	cmp	r7, #6
 8000f8e:	d01e      	beq.n	8000fce <RCC_PLLConfig+0x8a>
 8000f90:	f1a7 0108 	sub.w	r1, r7, #8
 8000f94:	424a      	negs	r2, r1
 8000f96:	eb42 0001 	adc.w	r0, r2, r1
 8000f9a:	f7ff f95b 	bl	8000254 <assert_param>
 8000f9e:	f1a8 0004 	sub.w	r0, r8, #4
 8000fa2:	280b      	cmp	r0, #11
 8000fa4:	bf8c      	ite	hi
 8000fa6:	2000      	movhi	r0, #0
 8000fa8:	2001      	movls	r0, #1
 8000faa:	ea45 0404 	orr.w	r4, r5, r4
 8000fae:	f7ff f951 	bl	8000254 <assert_param>
 8000fb2:	087f      	lsrs	r7, r7, #1
 8000fb4:	ea44 1c86 	orr.w	ip, r4, r6, lsl #6
 8000fb8:	ea4c 6808 	orr.w	r8, ip, r8, lsl #24
 8000fbc:	1e7e      	subs	r6, r7, #1
 8000fbe:	4b05      	ldr	r3, [pc, #20]	; (8000fd4 <RCC_PLLConfig+0x90>)
 8000fc0:	ea48 4606 	orr.w	r6, r8, r6, lsl #16
 8000fc4:	605e      	str	r6, [r3, #4]
 8000fc6:	e8bd 81f0 	ldmia.w	sp!, {r4, r5, r6, r7, r8, pc}
 8000fca:	2001      	movs	r0, #1
 8000fcc:	e7ca      	b.n	8000f64 <RCC_PLLConfig+0x20>
 8000fce:	2001      	movs	r0, #1
 8000fd0:	e7e3      	b.n	8000f9a <RCC_PLLConfig+0x56>
 8000fd2:	bf00      	nop
 8000fd4:	40023800 	andmi	r3, r2, r0, lsl #16

08000fd8 <RCC_PLLCmd>:
 8000fd8:	2801      	cmp	r0, #1
 8000fda:	b510      	push	{r4, lr}
 8000fdc:	4604      	mov	r4, r0
 8000fde:	bf8c      	ite	hi
 8000fe0:	2000      	movhi	r0, #0
 8000fe2:	2001      	movls	r0, #1
 8000fe4:	f7ff f936 	bl	8000254 <assert_param>
 8000fe8:	4b01      	ldr	r3, [pc, #4]	; (8000ff0 <RCC_PLLCmd+0x18>)
 8000fea:	601c      	str	r4, [r3, #0]
 8000fec:	bd10      	pop	{r4, pc}
 8000fee:	bf00      	nop
 8000ff0:	42470060 	submi	r0, r7, #96	; 0x60

08000ff4 <RCC_PLLI2SConfig>:
 8000ff4:	b538      	push	{r3, r4, r5, lr}
 8000ff6:	4604      	mov	r4, r0
 8000ff8:	38c0      	subs	r0, #192	; 0xc0
 8000ffa:	28f0      	cmp	r0, #240	; 0xf0
 8000ffc:	460d      	mov	r5, r1
 8000ffe:	bf8c      	ite	hi
 8001000:	2000      	movhi	r0, #0
 8001002:	2001      	movls	r0, #1
 8001004:	f7ff f926 	bl	8000254 <assert_param>
 8001008:	1ea8      	subs	r0, r5, #2
 800100a:	2805      	cmp	r0, #5
 800100c:	bf8c      	ite	hi
 800100e:	2000      	movhi	r0, #0
 8001010:	2001      	movls	r0, #1
 8001012:	f7ff f91f 	bl	8000254 <assert_param>
 8001016:	01a4      	lsls	r4, r4, #6
 8001018:	4b02      	ldr	r3, [pc, #8]	; (8001024 <RCC_PLLI2SConfig+0x30>)
 800101a:	ea44 7505 	orr.w	r5, r4, r5, lsl #28
 800101e:	f8c3 5084 	str.w	r5, [r3, #132]	; 0x84
 8001022:	bd38      	pop	{r3, r4, r5, pc}
 8001024:	40023800 	andmi	r3, r2, r0, lsl #16

08001028 <RCC_PLLI2SCmd>:
 8001028:	2801      	cmp	r0, #1
 800102a:	b510      	push	{r4, lr}
 800102c:	4604      	mov	r4, r0
 800102e:	bf8c      	ite	hi
 8001030:	2000      	movhi	r0, #0
 8001032:	2001      	movls	r0, #1
 8001034:	f7ff f90e 	bl	8000254 <assert_param>
 8001038:	4b01      	ldr	r3, [pc, #4]	; (8001040 <RCC_PLLI2SCmd+0x18>)
 800103a:	601c      	str	r4, [r3, #0]
 800103c:	bd10      	pop	{r4, pc}
 800103e:	bf00      	nop
 8001040:	42470068 	submi	r0, r7, #104	; 0x68

08001044 <RCC_ClockSecuritySystemCmd>:
 8001044:	2801      	cmp	r0, #1
 8001046:	b510      	push	{r4, lr}
 8001048:	4604      	mov	r4, r0
 800104a:	bf8c      	ite	hi
 800104c:	2000      	movhi	r0, #0
 800104e:	2001      	movls	r0, #1
 8001050:	f7ff f900 	bl	8000254 <assert_param>
 8001054:	4b01      	ldr	r3, [pc, #4]	; (800105c <RCC_ClockSecuritySystemCmd+0x18>)
 8001056:	601c      	str	r4, [r3, #0]
 8001058:	bd10      	pop	{r4, pc}
 800105a:	bf00      	nop
 800105c:	4247004c 	submi	r0, r7, #76	; 0x4c

08001060 <RCC_MCO1Config>:
 8001060:	b538      	push	{r3, r4, r5, lr}
 8001062:	4604      	mov	r4, r0
 8001064:	460d      	mov	r5, r1
 8001066:	b1c8      	cbz	r0, 800109c <RCC_MCO1Config+0x3c>
 8001068:	f5b0 1f00 	cmp.w	r0, #2097152	; 0x200000
 800106c:	d016      	beq.n	800109c <RCC_MCO1Config+0x3c>
 800106e:	f5b0 0f80 	cmp.w	r0, #4194304	; 0x400000
 8001072:	d013      	beq.n	800109c <RCC_MCO1Config+0x3c>
 8001074:	f5a0 03c0 	sub.w	r3, r0, #6291456	; 0x600000
 8001078:	4258      	negs	r0, r3
 800107a:	eb40 0003 	adc.w	r0, r0, r3
 800107e:	f7ff f8e9 	bl	8000254 <assert_param>
 8001082:	b985      	cbnz	r5, 80010a6 <RCC_MCO1Config+0x46>
 8001084:	2001      	movs	r0, #1
 8001086:	f7ff f8e5 	bl	8000254 <assert_param>
 800108a:	480f      	ldr	r0, [pc, #60]	; (80010c8 <RCC_MCO1Config+0x68>)
 800108c:	6883      	ldr	r3, [r0, #8]
 800108e:	f023 62ec 	bic.w	r2, r3, #123731968	; 0x7600000
 8001092:	4314      	orrs	r4, r2
 8001094:	ea44 0505 	orr.w	r5, r4, r5
 8001098:	6085      	str	r5, [r0, #8]
 800109a:	bd38      	pop	{r3, r4, r5, pc}
 800109c:	2001      	movs	r0, #1
 800109e:	f7ff f8d9 	bl	8000254 <assert_param>
 80010a2:	2d00      	cmp	r5, #0
 80010a4:	d0ee      	beq.n	8001084 <RCC_MCO1Config+0x24>
 80010a6:	f1b5 6f80 	cmp.w	r5, #67108864	; 0x4000000
 80010aa:	d0eb      	beq.n	8001084 <RCC_MCO1Config+0x24>
 80010ac:	f1b5 6fa0 	cmp.w	r5, #83886080	; 0x5000000
 80010b0:	d0e8      	beq.n	8001084 <RCC_MCO1Config+0x24>
 80010b2:	f1b5 6fc0 	cmp.w	r5, #100663296	; 0x6000000
 80010b6:	d0e5      	beq.n	8001084 <RCC_MCO1Config+0x24>
 80010b8:	f1a5 6ce0 	sub.w	ip, r5, #117440512	; 0x7000000
 80010bc:	f1dc 0100 	rsbs	r1, ip, #0
 80010c0:	eb41 000c 	adc.w	r0, r1, ip
 80010c4:	e7df      	b.n	8001086 <RCC_MCO1Config+0x26>
 80010c6:	bf00      	nop
 80010c8:	40023800 	andmi	r3, r2, r0, lsl #16

080010cc <RCC_MCO2Config>:
 80010cc:	b538      	push	{r3, r4, r5, lr}
 80010ce:	4604      	mov	r4, r0
 80010d0:	460d      	mov	r5, r1
 80010d2:	b1d0      	cbz	r0, 800110a <RCC_MCO2Config+0x3e>
 80010d4:	f1b0 4f80 	cmp.w	r0, #1073741824	; 0x40000000
 80010d8:	d017      	beq.n	800110a <RCC_MCO2Config+0x3e>
 80010da:	f1b0 4f00 	cmp.w	r0, #2147483648	; 0x80000000
 80010de:	d014      	beq.n	800110a <RCC_MCO2Config+0x3e>
 80010e0:	f1a0 4140 	sub.w	r1, r0, #3221225472	; 0xc0000000
 80010e4:	4248      	negs	r0, r1
 80010e6:	eb40 0001 	adc.w	r0, r0, r1
 80010ea:	f7ff f8b3 	bl	8000254 <assert_param>
 80010ee:	b98d      	cbnz	r5, 8001114 <RCC_MCO2Config+0x48>
 80010f0:	2001      	movs	r0, #1
 80010f2:	f7ff f8af 	bl	8000254 <assert_param>
 80010f6:	480f      	ldr	r0, [pc, #60]	; (8001134 <RCC_MCO2Config+0x68>)
 80010f8:	6881      	ldr	r1, [r0, #8]
 80010fa:	f021 4c78 	bic.w	ip, r1, #4160749568	; 0xf8000000
 80010fe:	ea44 040c 	orr.w	r4, r4, ip
 8001102:	ea44 0505 	orr.w	r5, r4, r5
 8001106:	6085      	str	r5, [r0, #8]
 8001108:	bd38      	pop	{r3, r4, r5, pc}
 800110a:	2001      	movs	r0, #1
 800110c:	f7ff f8a2 	bl	8000254 <assert_param>
 8001110:	2d00      	cmp	r5, #0
 8001112:	d0ed      	beq.n	80010f0 <RCC_MCO2Config+0x24>
 8001114:	f1b5 5f00 	cmp.w	r5, #536870912	; 0x20000000
 8001118:	d0ea      	beq.n	80010f0 <RCC_MCO2Config+0x24>
 800111a:	f1b5 5f20 	cmp.w	r5, #671088640	; 0x28000000
 800111e:	d0e7      	beq.n	80010f0 <RCC_MCO2Config+0x24>
 8001120:	f1b5 5f40 	cmp.w	r5, #805306368	; 0x30000000
 8001124:	d0e4      	beq.n	80010f0 <RCC_MCO2Config+0x24>
 8001126:	f1a5 5260 	sub.w	r2, r5, #939524096	; 0x38000000
 800112a:	4253      	negs	r3, r2
 800112c:	eb43 0002 	adc.w	r0, r3, r2
 8001130:	e7df      	b.n	80010f2 <RCC_MCO2Config+0x26>
 8001132:	bf00      	nop
 8001134:	40023800 	andmi	r3, r2, r0, lsl #16

08001138 <RCC_SYSCLKConfig>:
 8001138:	2802      	cmp	r0, #2
 800113a:	b510      	push	{r4, lr}
 800113c:	4604      	mov	r4, r0
 800113e:	bf8c      	ite	hi
 8001140:	2000      	movhi	r0, #0
 8001142:	2001      	movls	r0, #1
 8001144:	f7ff f886 	bl	8000254 <assert_param>
 8001148:	4b03      	ldr	r3, [pc, #12]	; (8001158 <RCC_SYSCLKConfig+0x20>)
 800114a:	6898      	ldr	r0, [r3, #8]
 800114c:	f020 0203 	bic.w	r2, r0, #3
 8001150:	4314      	orrs	r4, r2
 8001152:	609c      	str	r4, [r3, #8]
 8001154:	bd10      	pop	{r4, pc}
 8001156:	bf00      	nop
 8001158:	40023800 	andmi	r3, r2, r0, lsl #16

0800115c <RCC_GetSYSCLKSource>:
 800115c:	4b02      	ldr	r3, [pc, #8]	; (8001168 <RCC_GetSYSCLKSource+0xc>)
 800115e:	6898      	ldr	r0, [r3, #8]
 8001160:	f000 000c 	and.w	r0, r0, #12
 8001164:	4770      	bx	lr
 8001166:	bf00      	nop
 8001168:	40023800 	andmi	r3, r2, r0, lsl #16

0800116c <RCC_HCLKConfig>:
 800116c:	b510      	push	{r4, lr}
 800116e:	4604      	mov	r4, r0
 8001170:	b1a0      	cbz	r0, 800119c <RCC_HCLKConfig+0x30>
 8001172:	2880      	cmp	r0, #128	; 0x80
 8001174:	d012      	beq.n	800119c <RCC_HCLKConfig+0x30>
 8001176:	2890      	cmp	r0, #144	; 0x90
 8001178:	d010      	beq.n	800119c <RCC_HCLKConfig+0x30>
 800117a:	28a0      	cmp	r0, #160	; 0xa0
 800117c:	d00e      	beq.n	800119c <RCC_HCLKConfig+0x30>
 800117e:	28b0      	cmp	r0, #176	; 0xb0
 8001180:	d00c      	beq.n	800119c <RCC_HCLKConfig+0x30>
 8001182:	28c0      	cmp	r0, #192	; 0xc0
 8001184:	d00a      	beq.n	800119c <RCC_HCLKConfig+0x30>
 8001186:	28d0      	cmp	r0, #208	; 0xd0
 8001188:	d008      	beq.n	800119c <RCC_HCLKConfig+0x30>
 800118a:	28e0      	cmp	r0, #224	; 0xe0
 800118c:	d006      	beq.n	800119c <RCC_HCLKConfig+0x30>
 800118e:	f1a0 0ef0 	sub.w	lr, r0, #240	; 0xf0
 8001192:	f1de 0000 	rsbs	r0, lr, #0
 8001196:	eb40 000e 	adc.w	r0, r0, lr
 800119a:	e000      	b.n	800119e <RCC_HCLKConfig+0x32>
 800119c:	2001      	movs	r0, #1
 800119e:	f7ff f859 	bl	8000254 <assert_param>
 80011a2:	4b03      	ldr	r3, [pc, #12]	; (80011b0 <RCC_HCLKConfig+0x44>)
 80011a4:	6899      	ldr	r1, [r3, #8]
 80011a6:	f021 02f0 	bic.w	r2, r1, #240	; 0xf0
 80011aa:	4314      	orrs	r4, r2
 80011ac:	609c      	str	r4, [r3, #8]
 80011ae:	bd10      	pop	{r4, pc}
 80011b0:	40023800 	andmi	r3, r2, r0, lsl #16

080011b4 <RCC_PCLK1Config>:
 80011b4:	b510      	push	{r4, lr}
 80011b6:	4604      	mov	r4, r0
 80011b8:	b178      	cbz	r0, 80011da <RCC_PCLK1Config+0x26>
 80011ba:	f5b0 5f80 	cmp.w	r0, #4096	; 0x1000
 80011be:	d00c      	beq.n	80011da <RCC_PCLK1Config+0x26>
 80011c0:	f5b0 5fa0 	cmp.w	r0, #5120	; 0x1400
 80011c4:	d009      	beq.n	80011da <RCC_PCLK1Config+0x26>
 80011c6:	f5b0 5fc0 	cmp.w	r0, #6144	; 0x1800
 80011ca:	d006      	beq.n	80011da <RCC_PCLK1Config+0x26>
 80011cc:	f5a0 5ce0 	sub.w	ip, r0, #7168	; 0x1c00
 80011d0:	f1dc 0000 	rsbs	r0, ip, #0
 80011d4:	eb40 000c 	adc.w	r0, r0, ip
 80011d8:	e000      	b.n	80011dc <RCC_PCLK1Config+0x28>
 80011da:	2001      	movs	r0, #1
 80011dc:	f7ff f83a 	bl	8000254 <assert_param>
 80011e0:	4b03      	ldr	r3, [pc, #12]	; (80011f0 <RCC_PCLK1Config+0x3c>)
 80011e2:	6899      	ldr	r1, [r3, #8]
 80011e4:	f421 52e0 	bic.w	r2, r1, #7168	; 0x1c00
 80011e8:	4314      	orrs	r4, r2
 80011ea:	609c      	str	r4, [r3, #8]
 80011ec:	bd10      	pop	{r4, pc}
 80011ee:	bf00      	nop
 80011f0:	40023800 	andmi	r3, r2, r0, lsl #16

080011f4 <RCC_PCLK2Config>:
 80011f4:	b510      	push	{r4, lr}
 80011f6:	4604      	mov	r4, r0
 80011f8:	b170      	cbz	r0, 8001218 <RCC_PCLK2Config+0x24>
 80011fa:	f5b0 5f80 	cmp.w	r0, #4096	; 0x1000
 80011fe:	d00b      	beq.n	8001218 <RCC_PCLK2Config+0x24>
 8001200:	f5b0 5fa0 	cmp.w	r0, #5120	; 0x1400
 8001204:	d008      	beq.n	8001218 <RCC_PCLK2Config+0x24>
 8001206:	f5b0 5fc0 	cmp.w	r0, #6144	; 0x1800
 800120a:	d005      	beq.n	8001218 <RCC_PCLK2Config+0x24>
 800120c:	f5a0 53e0 	sub.w	r3, r0, #7168	; 0x1c00
 8001210:	4258      	negs	r0, r3
 8001212:	eb40 0003 	adc.w	r0, r0, r3
 8001216:	e000      	b.n	800121a <RCC_PCLK2Config+0x26>
 8001218:	2001      	movs	r0, #1
 800121a:	f7ff f81b 	bl	8000254 <assert_param>
 800121e:	4904      	ldr	r1, [pc, #16]	; (8001230 <RCC_PCLK2Config+0x3c>)
 8001220:	6888      	ldr	r0, [r1, #8]
 8001222:	f420 4260 	bic.w	r2, r0, #57344	; 0xe000
 8001226:	ea42 04c4 	orr.w	r4, r2, r4, lsl #3
 800122a:	608c      	str	r4, [r1, #8]
 800122c:	bd10      	pop	{r4, pc}
 800122e:	bf00      	nop
 8001230:	40023800 	andmi	r3, r2, r0, lsl #16

08001234 <RCC_GetClocksFreq>:
 8001234:	4a20      	ldr	r2, [pc, #128]	; (80012b8 <RCC_GetClocksFreq+0x84>)
 8001236:	6893      	ldr	r3, [r2, #8]
 8001238:	f003 030c 	and.w	r3, r3, #12
 800123c:	2b04      	cmp	r3, #4
 800123e:	b410      	push	{r4}
 8001240:	d01d      	beq.n	800127e <RCC_GetClocksFreq+0x4a>
 8001242:	2b08      	cmp	r3, #8
 8001244:	d01e      	beq.n	8001284 <RCC_GetClocksFreq+0x50>
 8001246:	4b1d      	ldr	r3, [pc, #116]	; (80012bc <RCC_GetClocksFreq+0x88>)
 8001248:	6003      	str	r3, [r0, #0]
 800124a:	491b      	ldr	r1, [pc, #108]	; (80012b8 <RCC_GetClocksFreq+0x84>)
 800124c:	4a1c      	ldr	r2, [pc, #112]	; (80012c0 <RCC_GetClocksFreq+0x8c>)
 800124e:	688c      	ldr	r4, [r1, #8]
 8001250:	f3c4 1c03 	ubfx	ip, r4, #4, #4
 8001254:	f812 400c 	ldrb.w	r4, [r2, ip]
 8001258:	40e3      	lsrs	r3, r4
 800125a:	6043      	str	r3, [r0, #4]
 800125c:	688c      	ldr	r4, [r1, #8]
 800125e:	f3c4 2c82 	ubfx	ip, r4, #10, #3
 8001262:	f812 400c 	ldrb.w	r4, [r2, ip]
 8001266:	fa33 f404 	lsrs.w	r4, r3, r4
 800126a:	6084      	str	r4, [r0, #8]
 800126c:	6889      	ldr	r1, [r1, #8]
 800126e:	f3c1 3c42 	ubfx	ip, r1, #13, #3
 8001272:	f812 200c 	ldrb.w	r2, [r2, ip]
 8001276:	40d3      	lsrs	r3, r2
 8001278:	60c3      	str	r3, [r0, #12]
 800127a:	bc10      	pop	{r4}
 800127c:	4770      	bx	lr
 800127e:	4b11      	ldr	r3, [pc, #68]	; (80012c4 <RCC_GetClocksFreq+0x90>)
 8001280:	6003      	str	r3, [r0, #0]
 8001282:	e7e2      	b.n	800124a <RCC_GetClocksFreq+0x16>
 8001284:	6854      	ldr	r4, [r2, #4]
 8001286:	6851      	ldr	r1, [r2, #4]
 8001288:	f414 0f80 	tst.w	r4, #4194304	; 0x400000
 800128c:	6854      	ldr	r4, [r2, #4]
 800128e:	bf14      	ite	ne
 8001290:	4b0c      	ldrne	r3, [pc, #48]	; (80012c4 <RCC_GetClocksFreq+0x90>)
 8001292:	4b0a      	ldreq	r3, [pc, #40]	; (80012bc <RCC_GetClocksFreq+0x88>)
 8001294:	f3c4 1288 	ubfx	r2, r4, #6, #9
 8001298:	f001 013f 	and.w	r1, r1, #63	; 0x3f
 800129c:	4c06      	ldr	r4, [pc, #24]	; (80012b8 <RCC_GetClocksFreq+0x84>)
 800129e:	fbb3 fcf1 	udiv	ip, r3, r1
 80012a2:	fb0c f102 	mul.w	r1, ip, r2
 80012a6:	6862      	ldr	r2, [r4, #4]
 80012a8:	f3c2 4301 	ubfx	r3, r2, #16, #2
 80012ac:	1c5c      	adds	r4, r3, #1
 80012ae:	0062      	lsls	r2, r4, #1
 80012b0:	fbb1 f3f2 	udiv	r3, r1, r2
 80012b4:	6003      	str	r3, [r0, #0]
 80012b6:	e7c8      	b.n	800124a <RCC_GetClocksFreq+0x16>
 80012b8:	40023800 	andmi	r3, r2, r0, lsl #16
 80012bc:	00f42400 	rscseq	r2, r4, r0, lsl #8
 80012c0:	20000018 	andcs	r0, r0, r8, lsl r0
 80012c4:	017d7840 	cmneq	sp, r0, asr #16

080012c8 <RCC_RTCCLKConfig>:
 80012c8:	f5b0 7f80 	cmp.w	r0, #256	; 0x100
 80012cc:	b510      	push	{r4, lr}
 80012ce:	4604      	mov	r4, r0
 80012d0:	f000 8098 	beq.w	8001404 <RCC_RTCCLKConfig+0x13c>
 80012d4:	f5b0 7f00 	cmp.w	r0, #512	; 0x200
 80012d8:	f000 8094 	beq.w	8001404 <RCC_RTCCLKConfig+0x13c>
 80012dc:	4b4e      	ldr	r3, [pc, #312]	; (8001418 <RCC_RTCCLKConfig+0x150>)
 80012de:	4298      	cmp	r0, r3
 80012e0:	d07b      	beq.n	80013da <RCC_RTCCLKConfig+0x112>
 80012e2:	f503 3380 	add.w	r3, r3, #65536	; 0x10000
 80012e6:	4298      	cmp	r0, r3
 80012e8:	d077      	beq.n	80013da <RCC_RTCCLKConfig+0x112>
 80012ea:	f503 3380 	add.w	r3, r3, #65536	; 0x10000
 80012ee:	4298      	cmp	r0, r3
 80012f0:	d073      	beq.n	80013da <RCC_RTCCLKConfig+0x112>
 80012f2:	f503 3380 	add.w	r3, r3, #65536	; 0x10000
 80012f6:	4298      	cmp	r0, r3
 80012f8:	d06f      	beq.n	80013da <RCC_RTCCLKConfig+0x112>
 80012fa:	f503 3380 	add.w	r3, r3, #65536	; 0x10000
 80012fe:	4298      	cmp	r0, r3
 8001300:	d06b      	beq.n	80013da <RCC_RTCCLKConfig+0x112>
 8001302:	f503 3380 	add.w	r3, r3, #65536	; 0x10000
 8001306:	4298      	cmp	r0, r3
 8001308:	d067      	beq.n	80013da <RCC_RTCCLKConfig+0x112>
 800130a:	f503 3380 	add.w	r3, r3, #65536	; 0x10000
 800130e:	4298      	cmp	r0, r3
 8001310:	d063      	beq.n	80013da <RCC_RTCCLKConfig+0x112>
 8001312:	f503 3380 	add.w	r3, r3, #65536	; 0x10000
 8001316:	4298      	cmp	r0, r3
 8001318:	d05f      	beq.n	80013da <RCC_RTCCLKConfig+0x112>
 800131a:	f503 3380 	add.w	r3, r3, #65536	; 0x10000
 800131e:	4298      	cmp	r0, r3
 8001320:	d05b      	beq.n	80013da <RCC_RTCCLKConfig+0x112>
 8001322:	f503 3380 	add.w	r3, r3, #65536	; 0x10000
 8001326:	4298      	cmp	r0, r3
 8001328:	d057      	beq.n	80013da <RCC_RTCCLKConfig+0x112>
 800132a:	f503 3380 	add.w	r3, r3, #65536	; 0x10000
 800132e:	4298      	cmp	r0, r3
 8001330:	d053      	beq.n	80013da <RCC_RTCCLKConfig+0x112>
 8001332:	f503 3380 	add.w	r3, r3, #65536	; 0x10000
 8001336:	4298      	cmp	r0, r3
 8001338:	d04f      	beq.n	80013da <RCC_RTCCLKConfig+0x112>
 800133a:	f503 3380 	add.w	r3, r3, #65536	; 0x10000
 800133e:	4298      	cmp	r0, r3
 8001340:	d04b      	beq.n	80013da <RCC_RTCCLKConfig+0x112>
 8001342:	f503 3380 	add.w	r3, r3, #65536	; 0x10000
 8001346:	4298      	cmp	r0, r3
 8001348:	d047      	beq.n	80013da <RCC_RTCCLKConfig+0x112>
 800134a:	f503 3380 	add.w	r3, r3, #65536	; 0x10000
 800134e:	4298      	cmp	r0, r3
 8001350:	d043      	beq.n	80013da <RCC_RTCCLKConfig+0x112>
 8001352:	f503 3380 	add.w	r3, r3, #65536	; 0x10000
 8001356:	4298      	cmp	r0, r3
 8001358:	d03f      	beq.n	80013da <RCC_RTCCLKConfig+0x112>
 800135a:	f503 3380 	add.w	r3, r3, #65536	; 0x10000
 800135e:	4298      	cmp	r0, r3
 8001360:	d03b      	beq.n	80013da <RCC_RTCCLKConfig+0x112>
 8001362:	f503 3380 	add.w	r3, r3, #65536	; 0x10000
 8001366:	4298      	cmp	r0, r3
 8001368:	d037      	beq.n	80013da <RCC_RTCCLKConfig+0x112>
 800136a:	f503 3380 	add.w	r3, r3, #65536	; 0x10000
 800136e:	4298      	cmp	r0, r3
 8001370:	d033      	beq.n	80013da <RCC_RTCCLKConfig+0x112>
 8001372:	f503 3380 	add.w	r3, r3, #65536	; 0x10000
 8001376:	4298      	cmp	r0, r3
 8001378:	d02f      	beq.n	80013da <RCC_RTCCLKConfig+0x112>
 800137a:	4928      	ldr	r1, [pc, #160]	; (800141c <RCC_RTCCLKConfig+0x154>)
 800137c:	4288      	cmp	r0, r1
 800137e:	d02c      	beq.n	80013da <RCC_RTCCLKConfig+0x112>
 8001380:	4a27      	ldr	r2, [pc, #156]	; (8001420 <RCC_RTCCLKConfig+0x158>)
 8001382:	4290      	cmp	r0, r2
 8001384:	d029      	beq.n	80013da <RCC_RTCCLKConfig+0x112>
 8001386:	4b27      	ldr	r3, [pc, #156]	; (8001424 <RCC_RTCCLKConfig+0x15c>)
 8001388:	4298      	cmp	r0, r3
 800138a:	d026      	beq.n	80013da <RCC_RTCCLKConfig+0x112>
 800138c:	4926      	ldr	r1, [pc, #152]	; (8001428 <RCC_RTCCLKConfig+0x160>)
 800138e:	4288      	cmp	r0, r1
 8001390:	d023      	beq.n	80013da <RCC_RTCCLKConfig+0x112>
 8001392:	4a26      	ldr	r2, [pc, #152]	; (800142c <RCC_RTCCLKConfig+0x164>)
 8001394:	4290      	cmp	r0, r2
 8001396:	d020      	beq.n	80013da <RCC_RTCCLKConfig+0x112>
 8001398:	4b25      	ldr	r3, [pc, #148]	; (8001430 <RCC_RTCCLKConfig+0x168>)
 800139a:	4298      	cmp	r0, r3
 800139c:	d01d      	beq.n	80013da <RCC_RTCCLKConfig+0x112>
 800139e:	4925      	ldr	r1, [pc, #148]	; (8001434 <RCC_RTCCLKConfig+0x16c>)
 80013a0:	4288      	cmp	r0, r1
 80013a2:	d01a      	beq.n	80013da <RCC_RTCCLKConfig+0x112>
 80013a4:	4a24      	ldr	r2, [pc, #144]	; (8001438 <RCC_RTCCLKConfig+0x170>)
 80013a6:	4290      	cmp	r0, r2
 80013a8:	d017      	beq.n	80013da <RCC_RTCCLKConfig+0x112>
 80013aa:	4b24      	ldr	r3, [pc, #144]	; (800143c <RCC_RTCCLKConfig+0x174>)
 80013ac:	4298      	cmp	r0, r3
 80013ae:	d014      	beq.n	80013da <RCC_RTCCLKConfig+0x112>
 80013b0:	4923      	ldr	r1, [pc, #140]	; (8001440 <RCC_RTCCLKConfig+0x178>)
 80013b2:	ebc1 0e00 	rsb	lr, r1, r0
 80013b6:	f1de 0c00 	rsbs	ip, lr, #0
 80013ba:	eb4c 000e 	adc.w	r0, ip, lr
 80013be:	f7fe ff49 	bl	8000254 <assert_param>
 80013c2:	f404 7040 	and.w	r0, r4, #768	; 0x300
 80013c6:	f5b0 7f40 	cmp.w	r0, #768	; 0x300
 80013ca:	d009      	beq.n	80013e0 <RCC_RTCCLKConfig+0x118>
 80013cc:	4b1d      	ldr	r3, [pc, #116]	; (8001444 <RCC_RTCCLKConfig+0x17c>)
 80013ce:	0520      	lsls	r0, r4, #20
 80013d0:	6f1a      	ldr	r2, [r3, #112]	; 0x70
 80013d2:	0d04      	lsrs	r4, r0, #20
 80013d4:	4314      	orrs	r4, r2
 80013d6:	671c      	str	r4, [r3, #112]	; 0x70
 80013d8:	bd10      	pop	{r4, pc}
 80013da:	2001      	movs	r0, #1
 80013dc:	f7fe ff3a 	bl	8000254 <assert_param>
 80013e0:	4b18      	ldr	r3, [pc, #96]	; (8001444 <RCC_RTCCLKConfig+0x17c>)
 80013e2:	6899      	ldr	r1, [r3, #8]
 80013e4:	f024 4e70 	bic.w	lr, r4, #4026531840	; 0xf0000000
 80013e8:	f42e 7040 	bic.w	r0, lr, #768	; 0x300
 80013ec:	f421 1cf8 	bic.w	ip, r1, #2031616	; 0x1f0000
 80013f0:	ea40 020c 	orr.w	r2, r0, ip
 80013f4:	609a      	str	r2, [r3, #8]
 80013f6:	4b13      	ldr	r3, [pc, #76]	; (8001444 <RCC_RTCCLKConfig+0x17c>)
 80013f8:	0520      	lsls	r0, r4, #20
 80013fa:	6f1a      	ldr	r2, [r3, #112]	; 0x70
 80013fc:	0d04      	lsrs	r4, r0, #20
 80013fe:	4314      	orrs	r4, r2
 8001400:	671c      	str	r4, [r3, #112]	; 0x70
 8001402:	bd10      	pop	{r4, pc}
 8001404:	2001      	movs	r0, #1
 8001406:	f7fe ff25 	bl	8000254 <assert_param>
 800140a:	4b0e      	ldr	r3, [pc, #56]	; (8001444 <RCC_RTCCLKConfig+0x17c>)
 800140c:	0520      	lsls	r0, r4, #20
 800140e:	6f1a      	ldr	r2, [r3, #112]	; 0x70
 8001410:	0d04      	lsrs	r4, r0, #20
 8001412:	4314      	orrs	r4, r2
 8001414:	671c      	str	r4, [r3, #112]	; 0x70
 8001416:	bd10      	pop	{r4, pc}
 8001418:	00020300 	andeq	r0, r2, r0, lsl #6
 800141c:	00160300 	andseq	r0, r6, r0, lsl #6
 8001420:	00170300 	andseq	r0, r7, r0, lsl #6
 8001424:	00180300 	andseq	r0, r8, r0, lsl #6
 8001428:	00190300 	andseq	r0, r9, r0, lsl #6
 800142c:	001a0300 	andseq	r0, sl, r0, lsl #6
 8001430:	001b0300 	andseq	r0, fp, r0, lsl #6
 8001434:	001c0300 	andseq	r0, ip, r0, lsl #6
 8001438:	001d0300 	andseq	r0, sp, r0, lsl #6
 800143c:	001e0300 	andseq	r0, lr, r0, lsl #6
 8001440:	001f0300 	andseq	r0, pc, r0, lsl #6
 8001444:	40023800 	andmi	r3, r2, r0, lsl #16

08001448 <RCC_RTCCLKCmd>:
 8001448:	2801      	cmp	r0, #1
 800144a:	b510      	push	{r4, lr}
 800144c:	4604      	mov	r4, r0
 800144e:	bf8c      	ite	hi
 8001450:	2000      	movhi	r0, #0
 8001452:	2001      	movls	r0, #1
 8001454:	f7fe fefe 	bl	8000254 <assert_param>
 8001458:	4b01      	ldr	r3, [pc, #4]	; (8001460 <RCC_RTCCLKCmd+0x18>)
 800145a:	601c      	str	r4, [r3, #0]
 800145c:	bd10      	pop	{r4, pc}
 800145e:	bf00      	nop
 8001460:	42470e3c 	submi	r0, r7, #60, 28	; 0x3c0

08001464 <RCC_BackupResetCmd>:
 8001464:	2801      	cmp	r0, #1
 8001466:	b510      	push	{r4, lr}
 8001468:	4604      	mov	r4, r0
 800146a:	bf8c      	ite	hi
 800146c:	2000      	movhi	r0, #0
 800146e:	2001      	movls	r0, #1
 8001470:	f7fe fef0 	bl	8000254 <assert_param>
 8001474:	4b01      	ldr	r3, [pc, #4]	; (800147c <RCC_BackupResetCmd+0x18>)
 8001476:	601c      	str	r4, [r3, #0]
 8001478:	bd10      	pop	{r4, pc}
 800147a:	bf00      	nop
 800147c:	42470e40 	submi	r0, r7, #64, 28	; 0x400

08001480 <RCC_I2SCLKConfig>:
 8001480:	2801      	cmp	r0, #1
 8001482:	b510      	push	{r4, lr}
 8001484:	4604      	mov	r4, r0
 8001486:	bf8c      	ite	hi
 8001488:	2000      	movhi	r0, #0
 800148a:	2001      	movls	r0, #1
 800148c:	f7fe fee2 	bl	8000254 <assert_param>
 8001490:	4b01      	ldr	r3, [pc, #4]	; (8001498 <RCC_I2SCLKConfig+0x18>)
 8001492:	601c      	str	r4, [r3, #0]
 8001494:	bd10      	pop	{r4, pc}
 8001496:	bf00      	nop
 8001498:	4247015c 	submi	r0, r7, #92, 2

0800149c <RCC_AHB1PeriphClockCmd>:
 800149c:	4a14      	ldr	r2, [pc, #80]	; (80014f0 <RCC_AHB1PeriphClockCmd+0x54>)
 800149e:	b538      	push	{r3, r4, r5, lr}
 80014a0:	ea00 0302 	and.w	r3, r0, r2
 80014a4:	4604      	mov	r4, r0
 80014a6:	460d      	mov	r5, r1
 80014a8:	b98b      	cbnz	r3, 80014ce <RCC_AHB1PeriphClockCmd+0x32>
 80014aa:	3800      	subs	r0, #0
 80014ac:	bf18      	it	ne
 80014ae:	2001      	movne	r0, #1
 80014b0:	f7fe fed0 	bl	8000254 <assert_param>
 80014b4:	2d01      	cmp	r5, #1
 80014b6:	bf8c      	ite	hi
 80014b8:	2000      	movhi	r0, #0
 80014ba:	2001      	movls	r0, #1
 80014bc:	f7fe feca 	bl	8000254 <assert_param>
 80014c0:	b985      	cbnz	r5, 80014e4 <RCC_AHB1PeriphClockCmd+0x48>
 80014c2:	4b0c      	ldr	r3, [pc, #48]	; (80014f4 <RCC_AHB1PeriphClockCmd+0x58>)
 80014c4:	6b1a      	ldr	r2, [r3, #48]	; 0x30
 80014c6:	ea22 0404 	bic.w	r4, r2, r4
 80014ca:	631c      	str	r4, [r3, #48]	; 0x30
 80014cc:	bd38      	pop	{r3, r4, r5, pc}
 80014ce:	2000      	movs	r0, #0
 80014d0:	f7fe fec0 	bl	8000254 <assert_param>
 80014d4:	2d01      	cmp	r5, #1
 80014d6:	bf8c      	ite	hi
 80014d8:	2000      	movhi	r0, #0
 80014da:	2001      	movls	r0, #1
 80014dc:	f7fe feba 	bl	8000254 <assert_param>
 80014e0:	2d00      	cmp	r5, #0
 80014e2:	d0ee      	beq.n	80014c2 <RCC_AHB1PeriphClockCmd+0x26>
 80014e4:	4803      	ldr	r0, [pc, #12]	; (80014f4 <RCC_AHB1PeriphClockCmd+0x58>)
 80014e6:	6b01      	ldr	r1, [r0, #48]	; 0x30
 80014e8:	430c      	orrs	r4, r1
 80014ea:	6304      	str	r4, [r0, #48]	; 0x30
 80014ec:	bd38      	pop	{r3, r4, r5, pc}
 80014ee:	bf00      	nop
 80014f0:	818bee00 	orrhi	lr, fp, r0, lsl #28
 80014f4:	40023800 	andmi	r3, r2, r0, lsl #16

080014f8 <RCC_AHB2PeriphClockCmd>:
 80014f8:	b538      	push	{r3, r4, r5, lr}
 80014fa:	f030 03f1 	bics.w	r3, r0, #241	; 0xf1
 80014fe:	4604      	mov	r4, r0
 8001500:	460d      	mov	r5, r1
 8001502:	d111      	bne.n	8001528 <RCC_AHB2PeriphClockCmd+0x30>
 8001504:	3800      	subs	r0, #0
 8001506:	bf18      	it	ne
 8001508:	2001      	movne	r0, #1
 800150a:	f7fe fea3 	bl	8000254 <assert_param>
 800150e:	2d01      	cmp	r5, #1
 8001510:	bf8c      	ite	hi
 8001512:	2000      	movhi	r0, #0
 8001514:	2001      	movls	r0, #1
 8001516:	f7fe fe9d 	bl	8000254 <assert_param>
 800151a:	b985      	cbnz	r5, 800153e <RCC_AHB2PeriphClockCmd+0x46>
 800151c:	480a      	ldr	r0, [pc, #40]	; (8001548 <RCC_AHB2PeriphClockCmd+0x50>)
 800151e:	6b41      	ldr	r1, [r0, #52]	; 0x34
 8001520:	ea21 0404 	bic.w	r4, r1, r4
 8001524:	6344      	str	r4, [r0, #52]	; 0x34
 8001526:	bd38      	pop	{r3, r4, r5, pc}
 8001528:	2000      	movs	r0, #0
 800152a:	f7fe fe93 	bl	8000254 <assert_param>
 800152e:	2d01      	cmp	r5, #1
 8001530:	bf8c      	ite	hi
 8001532:	2000      	movhi	r0, #0
 8001534:	2001      	movls	r0, #1
 8001536:	f7fe fe8d 	bl	8000254 <assert_param>
 800153a:	2d00      	cmp	r5, #0
 800153c:	d0ee      	beq.n	800151c <RCC_AHB2PeriphClockCmd+0x24>
 800153e:	4b02      	ldr	r3, [pc, #8]	; (8001548 <RCC_AHB2PeriphClockCmd+0x50>)
 8001540:	6b5a      	ldr	r2, [r3, #52]	; 0x34
 8001542:	4314      	orrs	r4, r2
 8001544:	635c      	str	r4, [r3, #52]	; 0x34
 8001546:	bd38      	pop	{r3, r4, r5, pc}
 8001548:	40023800 	andmi	r3, r2, r0, lsl #16

0800154c <RCC_AHB3PeriphClockCmd>:
 800154c:	b538      	push	{r3, r4, r5, lr}
 800154e:	f030 0301 	bics.w	r3, r0, #1
 8001552:	4604      	mov	r4, r0
 8001554:	460d      	mov	r5, r1
 8001556:	d111      	bne.n	800157c <RCC_AHB3PeriphClockCmd+0x30>
 8001558:	3800      	subs	r0, #0
 800155a:	bf18      	it	ne
 800155c:	2001      	movne	r0, #1
 800155e:	f7fe fe79 	bl	8000254 <assert_param>
 8001562:	2d01      	cmp	r5, #1
 8001564:	bf8c      	ite	hi
 8001566:	2000      	movhi	r0, #0
 8001568:	2001      	movls	r0, #1
 800156a:	f7fe fe73 	bl	8000254 <assert_param>
 800156e:	b985      	cbnz	r5, 8001592 <RCC_AHB3PeriphClockCmd+0x46>
 8001570:	480a      	ldr	r0, [pc, #40]	; (800159c <RCC_AHB3PeriphClockCmd+0x50>)
 8001572:	6b81      	ldr	r1, [r0, #56]	; 0x38
 8001574:	ea21 0404 	bic.w	r4, r1, r4
 8001578:	6384      	str	r4, [r0, #56]	; 0x38
 800157a:	bd38      	pop	{r3, r4, r5, pc}
 800157c:	2000      	movs	r0, #0
 800157e:	f7fe fe69 	bl	8000254 <assert_param>
 8001582:	2d01      	cmp	r5, #1
 8001584:	bf8c      	ite	hi
 8001586:	2000      	movhi	r0, #0
 8001588:	2001      	movls	r0, #1
 800158a:	f7fe fe63 	bl	8000254 <assert_param>
 800158e:	2d00      	cmp	r5, #0
 8001590:	d0ee      	beq.n	8001570 <RCC_AHB3PeriphClockCmd+0x24>
 8001592:	4b02      	ldr	r3, [pc, #8]	; (800159c <RCC_AHB3PeriphClockCmd+0x50>)
 8001594:	6b9a      	ldr	r2, [r3, #56]	; 0x38
 8001596:	4314      	orrs	r4, r2
 8001598:	639c      	str	r4, [r3, #56]	; 0x38
 800159a:	bd38      	pop	{r3, r4, r5, pc}
 800159c:	40023800 	andmi	r3, r2, r0, lsl #16

080015a0 <RCC_APB1PeriphClockCmd>:
 80015a0:	4a14      	ldr	r2, [pc, #80]	; (80015f4 <RCC_APB1PeriphClockCmd+0x54>)
 80015a2:	b538      	push	{r3, r4, r5, lr}
 80015a4:	ea00 0302 	and.w	r3, r0, r2
 80015a8:	4604      	mov	r4, r0
 80015aa:	460d      	mov	r5, r1
 80015ac:	b98b      	cbnz	r3, 80015d2 <RCC_APB1PeriphClockCmd+0x32>
 80015ae:	3800      	subs	r0, #0
 80015b0:	bf18      	it	ne
 80015b2:	2001      	movne	r0, #1
 80015b4:	f7fe fe4e 	bl	8000254 <assert_param>
 80015b8:	2d01      	cmp	r5, #1
 80015ba:	bf8c      	ite	hi
 80015bc:	2000      	movhi	r0, #0
 80015be:	2001      	movls	r0, #1
 80015c0:	f7fe fe48 	bl	8000254 <assert_param>
 80015c4:	b985      	cbnz	r5, 80015e8 <RCC_APB1PeriphClockCmd+0x48>
 80015c6:	4b0c      	ldr	r3, [pc, #48]	; (80015f8 <RCC_APB1PeriphClockCmd+0x58>)
 80015c8:	6c1a      	ldr	r2, [r3, #64]	; 0x40
 80015ca:	ea22 0404 	bic.w	r4, r2, r4
 80015ce:	641c      	str	r4, [r3, #64]	; 0x40
 80015d0:	bd38      	pop	{r3, r4, r5, pc}
 80015d2:	2000      	movs	r0, #0
 80015d4:	f7fe fe3e 	bl	8000254 <assert_param>
 80015d8:	2d01      	cmp	r5, #1
 80015da:	bf8c      	ite	hi
 80015dc:	2000      	movhi	r0, #0
 80015de:	2001      	movls	r0, #1
 80015e0:	f7fe fe38 	bl	8000254 <assert_param>
 80015e4:	2d00      	cmp	r5, #0
 80015e6:	d0ee      	beq.n	80015c6 <RCC_APB1PeriphClockCmd+0x26>
 80015e8:	4803      	ldr	r0, [pc, #12]	; (80015f8 <RCC_APB1PeriphClockCmd+0x58>)
 80015ea:	6c01      	ldr	r1, [r0, #64]	; 0x40
 80015ec:	430c      	orrs	r4, r1
 80015ee:	6404      	str	r4, [r0, #64]	; 0x40
 80015f0:	bd38      	pop	{r3, r4, r5, pc}
 80015f2:	bf00      	nop
 80015f4:	c9013600 	stmdbgt	r1, {r9, sl, ip, sp}
 80015f8:	40023800 	andmi	r3, r2, r0, lsl #16

080015fc <RCC_APB2PeriphClockCmd>:
 80015fc:	4a14      	ldr	r2, [pc, #80]	; (8001650 <RCC_APB2PeriphClockCmd+0x54>)
 80015fe:	b538      	push	{r3, r4, r5, lr}
 8001600:	ea00 0302 	and.w	r3, r0, r2
 8001604:	4604      	mov	r4, r0
 8001606:	460d      	mov	r5, r1
 8001608:	b98b      	cbnz	r3, 800162e <RCC_APB2PeriphClockCmd+0x32>
 800160a:	3800      	subs	r0, #0
 800160c:	bf18      	it	ne
 800160e:	2001      	movne	r0, #1
 8001610:	f7fe fe20 	bl	8000254 <assert_param>
 8001614:	2d01      	cmp	r5, #1
 8001616:	bf8c      	ite	hi
 8001618:	2000      	movhi	r0, #0
 800161a:	2001      	movls	r0, #1
 800161c:	f7fe fe1a 	bl	8000254 <assert_param>
 8001620:	b985      	cbnz	r5, 8001644 <RCC_APB2PeriphClockCmd+0x48>
 8001622:	4b0c      	ldr	r3, [pc, #48]	; (8001654 <RCC_APB2PeriphClockCmd+0x58>)
 8001624:	6c5a      	ldr	r2, [r3, #68]	; 0x44
 8001626:	ea22 0404 	bic.w	r4, r2, r4
 800162a:	645c      	str	r4, [r3, #68]	; 0x44
 800162c:	bd38      	pop	{r3, r4, r5, pc}
 800162e:	2000      	movs	r0, #0
 8001630:	f7fe fe10 	bl	8000254 <assert_param>
 8001634:	2d01      	cmp	r5, #1
 8001636:	bf8c      	ite	hi
 8001638:	2000      	movhi	r0, #0
 800163a:	2001      	movls	r0, #1
 800163c:	f7fe fe0a 	bl	8000254 <assert_param>
 8001640:	2d00      	cmp	r5, #0
 8001642:	d0ee      	beq.n	8001622 <RCC_APB2PeriphClockCmd+0x26>
 8001644:	4803      	ldr	r0, [pc, #12]	; (8001654 <RCC_APB2PeriphClockCmd+0x58>)
 8001646:	6c41      	ldr	r1, [r0, #68]	; 0x44
 8001648:	430c      	orrs	r4, r1
 800164a:	6444      	str	r4, [r0, #68]	; 0x44
 800164c:	bd38      	pop	{r3, r4, r5, pc}
 800164e:	bf00      	nop
 8001650:	fff8a0cc 			; <UNDEFINED> instruction: 0xfff8a0cc
 8001654:	40023800 	andmi	r3, r2, r0, lsl #16

08001658 <RCC_AHB1PeriphResetCmd>:
 8001658:	4a14      	ldr	r2, [pc, #80]	; (80016ac <RCC_AHB1PeriphResetCmd+0x54>)
 800165a:	b538      	push	{r3, r4, r5, lr}
 800165c:	ea00 0302 	and.w	r3, r0, r2
 8001660:	4604      	mov	r4, r0
 8001662:	460d      	mov	r5, r1
 8001664:	b98b      	cbnz	r3, 800168a <RCC_AHB1PeriphResetCmd+0x32>
 8001666:	3800      	subs	r0, #0
 8001668:	bf18      	it	ne
 800166a:	2001      	movne	r0, #1
 800166c:	f7fe fdf2 	bl	8000254 <assert_param>
 8001670:	2d01      	cmp	r5, #1
 8001672:	bf8c      	ite	hi
 8001674:	2000      	movhi	r0, #0
 8001676:	2001      	movls	r0, #1
 8001678:	f7fe fdec 	bl	8000254 <assert_param>
 800167c:	b985      	cbnz	r5, 80016a0 <RCC_AHB1PeriphResetCmd+0x48>
 800167e:	4b0c      	ldr	r3, [pc, #48]	; (80016b0 <RCC_AHB1PeriphResetCmd+0x58>)
 8001680:	691a      	ldr	r2, [r3, #16]
 8001682:	ea22 0404 	bic.w	r4, r2, r4
 8001686:	611c      	str	r4, [r3, #16]
 8001688:	bd38      	pop	{r3, r4, r5, pc}
 800168a:	2000      	movs	r0, #0
 800168c:	f7fe fde2 	bl	8000254 <assert_param>
 8001690:	2d01      	cmp	r5, #1
 8001692:	bf8c      	ite	hi
 8001694:	2000      	movhi	r0, #0
 8001696:	2001      	movls	r0, #1
 8001698:	f7fe fddc 	bl	8000254 <assert_param>
 800169c:	2d00      	cmp	r5, #0
 800169e:	d0ee      	beq.n	800167e <RCC_AHB1PeriphResetCmd+0x26>
 80016a0:	4803      	ldr	r0, [pc, #12]	; (80016b0 <RCC_AHB1PeriphResetCmd+0x58>)
 80016a2:	6901      	ldr	r1, [r0, #16]
 80016a4:	430c      	orrs	r4, r1
 80016a6:	6104      	str	r4, [r0, #16]
 80016a8:	bd38      	pop	{r3, r4, r5, pc}
 80016aa:	bf00      	nop
 80016ac:	dd9fee00 	ldcle	14, cr14, [pc]	; 80016b4 <RCC_AHB2PeriphResetCmd>
 80016b0:	40023800 	andmi	r3, r2, r0, lsl #16

080016b4 <RCC_AHB2PeriphResetCmd>:
 80016b4:	b538      	push	{r3, r4, r5, lr}
 80016b6:	f030 03f1 	bics.w	r3, r0, #241	; 0xf1
 80016ba:	4604      	mov	r4, r0
 80016bc:	460d      	mov	r5, r1
 80016be:	d111      	bne.n	80016e4 <RCC_AHB2PeriphResetCmd+0x30>
 80016c0:	3800      	subs	r0, #0
 80016c2:	bf18      	it	ne
 80016c4:	2001      	movne	r0, #1
 80016c6:	f7fe fdc5 	bl	8000254 <assert_param>
 80016ca:	2d01      	cmp	r5, #1
 80016cc:	bf8c      	ite	hi
 80016ce:	2000      	movhi	r0, #0
 80016d0:	2001      	movls	r0, #1
 80016d2:	f7fe fdbf 	bl	8000254 <assert_param>
 80016d6:	b985      	cbnz	r5, 80016fa <RCC_AHB2PeriphResetCmd+0x46>
 80016d8:	480a      	ldr	r0, [pc, #40]	; (8001704 <RCC_AHB2PeriphResetCmd+0x50>)
 80016da:	6941      	ldr	r1, [r0, #20]
 80016dc:	ea21 0404 	bic.w	r4, r1, r4
 80016e0:	6144      	str	r4, [r0, #20]
 80016e2:	bd38      	pop	{r3, r4, r5, pc}
 80016e4:	2000      	movs	r0, #0
 80016e6:	f7fe fdb5 	bl	8000254 <assert_param>
 80016ea:	2d01      	cmp	r5, #1
 80016ec:	bf8c      	ite	hi
 80016ee:	2000      	movhi	r0, #0
 80016f0:	2001      	movls	r0, #1
 80016f2:	f7fe fdaf 	bl	8000254 <assert_param>
 80016f6:	2d00      	cmp	r5, #0
 80016f8:	d0ee      	beq.n	80016d8 <RCC_AHB2PeriphResetCmd+0x24>
 80016fa:	4b02      	ldr	r3, [pc, #8]	; (8001704 <RCC_AHB2PeriphResetCmd+0x50>)
 80016fc:	695a      	ldr	r2, [r3, #20]
 80016fe:	4314      	orrs	r4, r2
 8001700:	615c      	str	r4, [r3, #20]
 8001702:	bd38      	pop	{r3, r4, r5, pc}
 8001704:	40023800 	andmi	r3, r2, r0, lsl #16

08001708 <RCC_AHB3PeriphResetCmd>:
 8001708:	b538      	push	{r3, r4, r5, lr}
 800170a:	f030 0301 	bics.w	r3, r0, #1
 800170e:	4604      	mov	r4, r0
 8001710:	460d      	mov	r5, r1
 8001712:	d111      	bne.n	8001738 <RCC_AHB3PeriphResetCmd+0x30>
 8001714:	3800      	subs	r0, #0
 8001716:	bf18      	it	ne
 8001718:	2001      	movne	r0, #1
 800171a:	f7fe fd9b 	bl	8000254 <assert_param>
 800171e:	2d01      	cmp	r5, #1
 8001720:	bf8c      	ite	hi
 8001722:	2000      	movhi	r0, #0
 8001724:	2001      	movls	r0, #1
 8001726:	f7fe fd95 	bl	8000254 <assert_param>
 800172a:	b985      	cbnz	r5, 800174e <RCC_AHB3PeriphResetCmd+0x46>
 800172c:	480a      	ldr	r0, [pc, #40]	; (8001758 <RCC_AHB3PeriphResetCmd+0x50>)
 800172e:	6981      	ldr	r1, [r0, #24]
 8001730:	ea21 0404 	bic.w	r4, r1, r4
 8001734:	6184      	str	r4, [r0, #24]
 8001736:	bd38      	pop	{r3, r4, r5, pc}
 8001738:	2000      	movs	r0, #0
 800173a:	f7fe fd8b 	bl	8000254 <assert_param>
 800173e:	2d01      	cmp	r5, #1
 8001740:	bf8c      	ite	hi
 8001742:	2000      	movhi	r0, #0
 8001744:	2001      	movls	r0, #1
 8001746:	f7fe fd85 	bl	8000254 <assert_param>
 800174a:	2d00      	cmp	r5, #0
 800174c:	d0ee      	beq.n	800172c <RCC_AHB3PeriphResetCmd+0x24>
 800174e:	4b02      	ldr	r3, [pc, #8]	; (8001758 <RCC_AHB3PeriphResetCmd+0x50>)
 8001750:	699a      	ldr	r2, [r3, #24]
 8001752:	4314      	orrs	r4, r2
 8001754:	619c      	str	r4, [r3, #24]
 8001756:	bd38      	pop	{r3, r4, r5, pc}
 8001758:	40023800 	andmi	r3, r2, r0, lsl #16

0800175c <RCC_APB1PeriphResetCmd>:
 800175c:	4a14      	ldr	r2, [pc, #80]	; (80017b0 <RCC_APB1PeriphResetCmd+0x54>)
 800175e:	b538      	push	{r3, r4, r5, lr}
 8001760:	ea00 0302 	and.w	r3, r0, r2
 8001764:	4604      	mov	r4, r0
 8001766:	460d      	mov	r5, r1
 8001768:	b98b      	cbnz	r3, 800178e <RCC_APB1PeriphResetCmd+0x32>
 800176a:	3800      	subs	r0, #0
 800176c:	bf18      	it	ne
 800176e:	2001      	movne	r0, #1
 8001770:	f7fe fd70 	bl	8000254 <assert_param>
 8001774:	2d01      	cmp	r5, #1
 8001776:	bf8c      	ite	hi
 8001778:	2000      	movhi	r0, #0
 800177a:	2001      	movls	r0, #1
 800177c:	f7fe fd6a 	bl	8000254 <assert_param>
 8001780:	b985      	cbnz	r5, 80017a4 <RCC_APB1PeriphResetCmd+0x48>
 8001782:	4b0c      	ldr	r3, [pc, #48]	; (80017b4 <RCC_APB1PeriphResetCmd+0x58>)
 8001784:	6a1a      	ldr	r2, [r3, #32]
 8001786:	ea22 0404 	bic.w	r4, r2, r4
 800178a:	621c      	str	r4, [r3, #32]
 800178c:	bd38      	pop	{r3, r4, r5, pc}
 800178e:	2000      	movs	r0, #0
 8001790:	f7fe fd60 	bl	8000254 <assert_param>
 8001794:	2d01      	cmp	r5, #1
 8001796:	bf8c      	ite	hi
 8001798:	2000      	movhi	r0, #0
 800179a:	2001      	movls	r0, #1
 800179c:	f7fe fd5a 	bl	8000254 <assert_param>
 80017a0:	2d00      	cmp	r5, #0
 80017a2:	d0ee      	beq.n	8001782 <RCC_APB1PeriphResetCmd+0x26>
 80017a4:	4803      	ldr	r0, [pc, #12]	; (80017b4 <RCC_APB1PeriphResetCmd+0x58>)
 80017a6:	6a01      	ldr	r1, [r0, #32]
 80017a8:	430c      	orrs	r4, r1
 80017aa:	6204      	str	r4, [r0, #32]
 80017ac:	bd38      	pop	{r3, r4, r5, pc}
 80017ae:	bf00      	nop
 80017b0:	c9013600 	stmdbgt	r1, {r9, sl, ip, sp}
 80017b4:	40023800 	andmi	r3, r2, r0, lsl #16

080017b8 <RCC_APB2PeriphResetCmd>:
 80017b8:	4a14      	ldr	r2, [pc, #80]	; (800180c <RCC_APB2PeriphResetCmd+0x54>)
 80017ba:	b538      	push	{r3, r4, r5, lr}
 80017bc:	ea00 0302 	and.w	r3, r0, r2
 80017c0:	4604      	mov	r4, r0
 80017c2:	460d      	mov	r5, r1
 80017c4:	b98b      	cbnz	r3, 80017ea <RCC_APB2PeriphResetCmd+0x32>
 80017c6:	3800      	subs	r0, #0
 80017c8:	bf18      	it	ne
 80017ca:	2001      	movne	r0, #1
 80017cc:	f7fe fd42 	bl	8000254 <assert_param>
 80017d0:	2d01      	cmp	r5, #1
 80017d2:	bf8c      	ite	hi
 80017d4:	2000      	movhi	r0, #0
 80017d6:	2001      	movls	r0, #1
 80017d8:	f7fe fd3c 	bl	8000254 <assert_param>
 80017dc:	b985      	cbnz	r5, 8001800 <RCC_APB2PeriphResetCmd+0x48>
 80017de:	4b0c      	ldr	r3, [pc, #48]	; (8001810 <RCC_APB2PeriphResetCmd+0x58>)
 80017e0:	6a5a      	ldr	r2, [r3, #36]	; 0x24
 80017e2:	ea22 0404 	bic.w	r4, r2, r4
 80017e6:	625c      	str	r4, [r3, #36]	; 0x24
 80017e8:	bd38      	pop	{r3, r4, r5, pc}
 80017ea:	2000      	movs	r0, #0
 80017ec:	f7fe fd32 	bl	8000254 <assert_param>
 80017f0:	2d01      	cmp	r5, #1
 80017f2:	bf8c      	ite	hi
 80017f4:	2000      	movhi	r0, #0
 80017f6:	2001      	movls	r0, #1
 80017f8:	f7fe fd2c 	bl	8000254 <assert_param>
 80017fc:	2d00      	cmp	r5, #0
 80017fe:	d0ee      	beq.n	80017de <RCC_APB2PeriphResetCmd+0x26>
 8001800:	4803      	ldr	r0, [pc, #12]	; (8001810 <RCC_APB2PeriphResetCmd+0x58>)
 8001802:	6a41      	ldr	r1, [r0, #36]	; 0x24
 8001804:	430c      	orrs	r4, r1
 8001806:	6244      	str	r4, [r0, #36]	; 0x24
 8001808:	bd38      	pop	{r3, r4, r5, pc}
 800180a:	bf00      	nop
 800180c:	fff8a6cc 			; <UNDEFINED> instruction: 0xfff8a6cc
 8001810:	40023800 	andmi	r3, r2, r0, lsl #16

08001814 <RCC_AHB1PeriphClockLPModeCmd>:
 8001814:	4a14      	ldr	r2, [pc, #80]	; (8001868 <RCC_AHB1PeriphClockLPModeCmd+0x54>)
 8001816:	b538      	push	{r3, r4, r5, lr}
 8001818:	ea00 0302 	and.w	r3, r0, r2
 800181c:	4604      	mov	r4, r0
 800181e:	460d      	mov	r5, r1
 8001820:	b98b      	cbnz	r3, 8001846 <RCC_AHB1PeriphClockLPModeCmd+0x32>
 8001822:	3800      	subs	r0, #0
 8001824:	bf18      	it	ne
 8001826:	2001      	movne	r0, #1
 8001828:	f7fe fd14 	bl	8000254 <assert_param>
 800182c:	2d01      	cmp	r5, #1
 800182e:	bf8c      	ite	hi
 8001830:	2000      	movhi	r0, #0
 8001832:	2001      	movls	r0, #1
 8001834:	f7fe fd0e 	bl	8000254 <assert_param>
 8001838:	b985      	cbnz	r5, 800185c <RCC_AHB1PeriphClockLPModeCmd+0x48>
 800183a:	4b0c      	ldr	r3, [pc, #48]	; (800186c <RCC_AHB1PeriphClockLPModeCmd+0x58>)
 800183c:	6d1a      	ldr	r2, [r3, #80]	; 0x50
 800183e:	ea22 0404 	bic.w	r4, r2, r4
 8001842:	651c      	str	r4, [r3, #80]	; 0x50
 8001844:	bd38      	pop	{r3, r4, r5, pc}
 8001846:	2000      	movs	r0, #0
 8001848:	f7fe fd04 	bl	8000254 <assert_param>
 800184c:	2d01      	cmp	r5, #1
 800184e:	bf8c      	ite	hi
 8001850:	2000      	movhi	r0, #0
 8001852:	2001      	movls	r0, #1
 8001854:	f7fe fcfe 	bl	8000254 <assert_param>
 8001858:	2d00      	cmp	r5, #0
 800185a:	d0ee      	beq.n	800183a <RCC_AHB1PeriphClockLPModeCmd+0x26>
 800185c:	4803      	ldr	r0, [pc, #12]	; (800186c <RCC_AHB1PeriphClockLPModeCmd+0x58>)
 800185e:	6d01      	ldr	r1, [r0, #80]	; 0x50
 8001860:	430c      	orrs	r4, r1
 8001862:	6504      	str	r4, [r0, #80]	; 0x50
 8001864:	bd38      	pop	{r3, r4, r5, pc}
 8001866:	bf00      	nop
 8001868:	81986e00 	orrshi	r6, r8, r0, lsl #28
 800186c:	40023800 	andmi	r3, r2, r0, lsl #16

08001870 <RCC_AHB2PeriphClockLPModeCmd>:
 8001870:	b538      	push	{r3, r4, r5, lr}
 8001872:	f030 03f1 	bics.w	r3, r0, #241	; 0xf1
 8001876:	4604      	mov	r4, r0
 8001878:	460d      	mov	r5, r1
 800187a:	d111      	bne.n	80018a0 <RCC_AHB2PeriphClockLPModeCmd+0x30>
 800187c:	3800      	subs	r0, #0
 800187e:	bf18      	it	ne
 8001880:	2001      	movne	r0, #1
 8001882:	f7fe fce7 	bl	8000254 <assert_param>
 8001886:	2d01      	cmp	r5, #1
 8001888:	bf8c      	ite	hi
 800188a:	2000      	movhi	r0, #0
 800188c:	2001      	movls	r0, #1
 800188e:	f7fe fce1 	bl	8000254 <assert_param>
 8001892:	b985      	cbnz	r5, 80018b6 <RCC_AHB2PeriphClockLPModeCmd+0x46>
 8001894:	480a      	ldr	r0, [pc, #40]	; (80018c0 <RCC_AHB2PeriphClockLPModeCmd+0x50>)
 8001896:	6d41      	ldr	r1, [r0, #84]	; 0x54
 8001898:	ea21 0404 	bic.w	r4, r1, r4
 800189c:	6544      	str	r4, [r0, #84]	; 0x54
 800189e:	bd38      	pop	{r3, r4, r5, pc}
 80018a0:	2000      	movs	r0, #0
 80018a2:	f7fe fcd7 	bl	8000254 <assert_param>
 80018a6:	2d01      	cmp	r5, #1
 80018a8:	bf8c      	ite	hi
 80018aa:	2000      	movhi	r0, #0
 80018ac:	2001      	movls	r0, #1
 80018ae:	f7fe fcd1 	bl	8000254 <assert_param>
 80018b2:	2d00      	cmp	r5, #0
 80018b4:	d0ee      	beq.n	8001894 <RCC_AHB2PeriphClockLPModeCmd+0x24>
 80018b6:	4b02      	ldr	r3, [pc, #8]	; (80018c0 <RCC_AHB2PeriphClockLPModeCmd+0x50>)
 80018b8:	6d5a      	ldr	r2, [r3, #84]	; 0x54
 80018ba:	4314      	orrs	r4, r2
 80018bc:	655c      	str	r4, [r3, #84]	; 0x54
 80018be:	bd38      	pop	{r3, r4, r5, pc}
 80018c0:	40023800 	andmi	r3, r2, r0, lsl #16

080018c4 <RCC_AHB3PeriphClockLPModeCmd>:
 80018c4:	b538      	push	{r3, r4, r5, lr}
 80018c6:	f030 0301 	bics.w	r3, r0, #1
 80018ca:	4604      	mov	r4, r0
 80018cc:	460d      	mov	r5, r1
 80018ce:	d111      	bne.n	80018f4 <RCC_AHB3PeriphClockLPModeCmd+0x30>
 80018d0:	3800      	subs	r0, #0
 80018d2:	bf18      	it	ne
 80018d4:	2001      	movne	r0, #1
 80018d6:	f7fe fcbd 	bl	8000254 <assert_param>
 80018da:	2d01      	cmp	r5, #1
 80018dc:	bf8c      	ite	hi
 80018de:	2000      	movhi	r0, #0
 80018e0:	2001      	movls	r0, #1
 80018e2:	f7fe fcb7 	bl	8000254 <assert_param>
 80018e6:	b985      	cbnz	r5, 800190a <RCC_AHB3PeriphClockLPModeCmd+0x46>
 80018e8:	480a      	ldr	r0, [pc, #40]	; (8001914 <RCC_AHB3PeriphClockLPModeCmd+0x50>)
 80018ea:	6d81      	ldr	r1, [r0, #88]	; 0x58
 80018ec:	ea21 0404 	bic.w	r4, r1, r4
 80018f0:	6584      	str	r4, [r0, #88]	; 0x58
 80018f2:	bd38      	pop	{r3, r4, r5, pc}
 80018f4:	2000      	movs	r0, #0
 80018f6:	f7fe fcad 	bl	8000254 <assert_param>
 80018fa:	2d01      	cmp	r5, #1
 80018fc:	bf8c      	ite	hi
 80018fe:	2000      	movhi	r0, #0
 8001900:	2001      	movls	r0, #1
 8001902:	f7fe fca7 	bl	8000254 <assert_param>
 8001906:	2d00      	cmp	r5, #0
 8001908:	d0ee      	beq.n	80018e8 <RCC_AHB3PeriphClockLPModeCmd+0x24>
 800190a:	4b02      	ldr	r3, [pc, #8]	; (8001914 <RCC_AHB3PeriphClockLPModeCmd+0x50>)
 800190c:	6d9a      	ldr	r2, [r3, #88]	; 0x58
 800190e:	4314      	orrs	r4, r2
 8001910:	659c      	str	r4, [r3, #88]	; 0x58
 8001912:	bd38      	pop	{r3, r4, r5, pc}
 8001914:	40023800 	andmi	r3, r2, r0, lsl #16

08001918 <RCC_APB1PeriphClockLPModeCmd>:
 8001918:	4a14      	ldr	r2, [pc, #80]	; (800196c <RCC_APB1PeriphClockLPModeCmd+0x54>)
 800191a:	b538      	push	{r3, r4, r5, lr}
 800191c:	ea00 0302 	and.w	r3, r0, r2
 8001920:	4604      	mov	r4, r0
 8001922:	460d      	mov	r5, r1
 8001924:	b98b      	cbnz	r3, 800194a <RCC_APB1PeriphClockLPModeCmd+0x32>
 8001926:	3800      	subs	r0, #0
 8001928:	bf18      	it	ne
 800192a:	2001      	movne	r0, #1
 800192c:	f7fe fc92 	bl	8000254 <assert_param>
 8001930:	2d01      	cmp	r5, #1
 8001932:	bf8c      	ite	hi
 8001934:	2000      	movhi	r0, #0
 8001936:	2001      	movls	r0, #1
 8001938:	f7fe fc8c 	bl	8000254 <assert_param>
 800193c:	b985      	cbnz	r5, 8001960 <RCC_APB1PeriphClockLPModeCmd+0x48>
 800193e:	4b0c      	ldr	r3, [pc, #48]	; (8001970 <RCC_APB1PeriphClockLPModeCmd+0x58>)
 8001940:	6e1a      	ldr	r2, [r3, #96]	; 0x60
 8001942:	ea22 0404 	bic.w	r4, r2, r4
 8001946:	661c      	str	r4, [r3, #96]	; 0x60
 8001948:	bd38      	pop	{r3, r4, r5, pc}
 800194a:	2000      	movs	r0, #0
 800194c:	f7fe fc82 	bl	8000254 <assert_param>
 8001950:	2d01      	cmp	r5, #1
 8001952:	bf8c      	ite	hi
 8001954:	2000      	movhi	r0, #0
 8001956:	2001      	movls	r0, #1
 8001958:	f7fe fc7c 	bl	8000254 <assert_param>
 800195c:	2d00      	cmp	r5, #0
 800195e:	d0ee      	beq.n	800193e <RCC_APB1PeriphClockLPModeCmd+0x26>
 8001960:	4803      	ldr	r0, [pc, #12]	; (8001970 <RCC_APB1PeriphClockLPModeCmd+0x58>)
 8001962:	6e01      	ldr	r1, [r0, #96]	; 0x60
 8001964:	430c      	orrs	r4, r1
 8001966:	6604      	str	r4, [r0, #96]	; 0x60
 8001968:	bd38      	pop	{r3, r4, r5, pc}
 800196a:	bf00      	nop
 800196c:	c9013600 	stmdbgt	r1, {r9, sl, ip, sp}
 8001970:	40023800 	andmi	r3, r2, r0, lsl #16

08001974 <RCC_APB2PeriphClockLPModeCmd>:
 8001974:	4a14      	ldr	r2, [pc, #80]	; (80019c8 <RCC_APB2PeriphClockLPModeCmd+0x54>)
 8001976:	b538      	push	{r3, r4, r5, lr}
 8001978:	ea00 0302 	and.w	r3, r0, r2
 800197c:	4604      	mov	r4, r0
 800197e:	460d      	mov	r5, r1
 8001980:	b98b      	cbnz	r3, 80019a6 <RCC_APB2PeriphClockLPModeCmd+0x32>
 8001982:	3800      	subs	r0, #0
 8001984:	bf18      	it	ne
 8001986:	2001      	movne	r0, #1
 8001988:	f7fe fc64 	bl	8000254 <assert_param>
 800198c:	2d01      	cmp	r5, #1
 800198e:	bf8c      	ite	hi
 8001990:	2000      	movhi	r0, #0
 8001992:	2001      	movls	r0, #1
 8001994:	f7fe fc5e 	bl	8000254 <assert_param>
 8001998:	b985      	cbnz	r5, 80019bc <RCC_APB2PeriphClockLPModeCmd+0x48>
 800199a:	4b0c      	ldr	r3, [pc, #48]	; (80019cc <RCC_APB2PeriphClockLPModeCmd+0x58>)
 800199c:	6e5a      	ldr	r2, [r3, #100]	; 0x64
 800199e:	ea22 0404 	bic.w	r4, r2, r4
 80019a2:	665c      	str	r4, [r3, #100]	; 0x64
 80019a4:	bd38      	pop	{r3, r4, r5, pc}
 80019a6:	2000      	movs	r0, #0
 80019a8:	f7fe fc54 	bl	8000254 <assert_param>
 80019ac:	2d01      	cmp	r5, #1
 80019ae:	bf8c      	ite	hi
 80019b0:	2000      	movhi	r0, #0
 80019b2:	2001      	movls	r0, #1
 80019b4:	f7fe fc4e 	bl	8000254 <assert_param>
 80019b8:	2d00      	cmp	r5, #0
 80019ba:	d0ee      	beq.n	800199a <RCC_APB2PeriphClockLPModeCmd+0x26>
 80019bc:	4803      	ldr	r0, [pc, #12]	; (80019cc <RCC_APB2PeriphClockLPModeCmd+0x58>)
 80019be:	6e41      	ldr	r1, [r0, #100]	; 0x64
 80019c0:	430c      	orrs	r4, r1
 80019c2:	6644      	str	r4, [r0, #100]	; 0x64
 80019c4:	bd38      	pop	{r3, r4, r5, pc}
 80019c6:	bf00      	nop
 80019c8:	fff8a0cc 			; <UNDEFINED> instruction: 0xfff8a0cc
 80019cc:	40023800 	andmi	r3, r2, r0, lsl #16

080019d0 <RCC_ITConfig>:
 80019d0:	f010 0fc0 	tst.w	r0, #192	; 0xc0
 80019d4:	b538      	push	{r3, r4, r5, lr}
 80019d6:	4604      	mov	r4, r0
 80019d8:	460d      	mov	r5, r1
 80019da:	d111      	bne.n	8001a00 <RCC_ITConfig+0x30>
 80019dc:	3800      	subs	r0, #0
 80019de:	bf18      	it	ne
 80019e0:	2001      	movne	r0, #1
 80019e2:	f7fe fc37 	bl	8000254 <assert_param>
 80019e6:	2d01      	cmp	r5, #1
 80019e8:	bf8c      	ite	hi
 80019ea:	2000      	movhi	r0, #0
 80019ec:	2001      	movls	r0, #1
 80019ee:	f7fe fc31 	bl	8000254 <assert_param>
 80019f2:	b985      	cbnz	r5, 8001a16 <RCC_ITConfig+0x46>
 80019f4:	480a      	ldr	r0, [pc, #40]	; (8001a20 <RCC_ITConfig+0x50>)
 80019f6:	7801      	ldrb	r1, [r0, #0]
 80019f8:	ea21 0404 	bic.w	r4, r1, r4
 80019fc:	7004      	strb	r4, [r0, #0]
 80019fe:	bd38      	pop	{r3, r4, r5, pc}
 8001a00:	2000      	movs	r0, #0
 8001a02:	f7fe fc27 	bl	8000254 <assert_param>
 8001a06:	2d01      	cmp	r5, #1
 8001a08:	bf8c      	ite	hi
 8001a0a:	2000      	movhi	r0, #0
 8001a0c:	2001      	movls	r0, #1
 8001a0e:	f7fe fc21 	bl	8000254 <assert_param>
 8001a12:	2d00      	cmp	r5, #0
 8001a14:	d0ee      	beq.n	80019f4 <RCC_ITConfig+0x24>
 8001a16:	4b02      	ldr	r3, [pc, #8]	; (8001a20 <RCC_ITConfig+0x50>)
 8001a18:	781a      	ldrb	r2, [r3, #0]
 8001a1a:	4314      	orrs	r4, r2
 8001a1c:	701c      	strb	r4, [r3, #0]
 8001a1e:	bd38      	pop	{r3, r4, r5, pc}
 8001a20:	4002380d 	andmi	r3, r2, sp, lsl #16

08001a24 <RCC_GetFlagStatus>:
 8001a24:	2821      	cmp	r0, #33	; 0x21
 8001a26:	b510      	push	{r4, lr}
 8001a28:	4604      	mov	r4, r0
 8001a2a:	d020      	beq.n	8001a6e <RCC_GetFlagStatus+0x4a>
 8001a2c:	2831      	cmp	r0, #49	; 0x31
 8001a2e:	d01e      	beq.n	8001a6e <RCC_GetFlagStatus+0x4a>
 8001a30:	2839      	cmp	r0, #57	; 0x39
 8001a32:	d01c      	beq.n	8001a6e <RCC_GetFlagStatus+0x4a>
 8001a34:	2841      	cmp	r0, #65	; 0x41
 8001a36:	d025      	beq.n	8001a84 <RCC_GetFlagStatus+0x60>
 8001a38:	2861      	cmp	r0, #97	; 0x61
 8001a3a:	d023      	beq.n	8001a84 <RCC_GetFlagStatus+0x60>
 8001a3c:	2879      	cmp	r0, #121	; 0x79
 8001a3e:	d021      	beq.n	8001a84 <RCC_GetFlagStatus+0x60>
 8001a40:	287a      	cmp	r0, #122	; 0x7a
 8001a42:	d01f      	beq.n	8001a84 <RCC_GetFlagStatus+0x60>
 8001a44:	287b      	cmp	r0, #123	; 0x7b
 8001a46:	d01d      	beq.n	8001a84 <RCC_GetFlagStatus+0x60>
 8001a48:	287c      	cmp	r0, #124	; 0x7c
 8001a4a:	d01b      	beq.n	8001a84 <RCC_GetFlagStatus+0x60>
 8001a4c:	287d      	cmp	r0, #125	; 0x7d
 8001a4e:	d019      	beq.n	8001a84 <RCC_GetFlagStatus+0x60>
 8001a50:	287e      	cmp	r0, #126	; 0x7e
 8001a52:	d017      	beq.n	8001a84 <RCC_GetFlagStatus+0x60>
 8001a54:	287f      	cmp	r0, #127	; 0x7f
 8001a56:	d015      	beq.n	8001a84 <RCC_GetFlagStatus+0x60>
 8001a58:	f1a0 013b 	sub.w	r1, r0, #59	; 0x3b
 8001a5c:	4248      	negs	r0, r1
 8001a5e:	eb40 0001 	adc.w	r0, r0, r1
 8001a62:	f7fe fbf7 	bl	8000254 <assert_param>
 8001a66:	0963      	lsrs	r3, r4, #5
 8001a68:	2b01      	cmp	r3, #1
 8001a6a:	d10f      	bne.n	8001a8c <RCC_GetFlagStatus+0x68>
 8001a6c:	e002      	b.n	8001a74 <RCC_GetFlagStatus+0x50>
 8001a6e:	2001      	movs	r0, #1
 8001a70:	f7fe fbf0 	bl	8000254 <assert_param>
 8001a74:	4b0b      	ldr	r3, [pc, #44]	; (8001aa4 <RCC_GetFlagStatus+0x80>)
 8001a76:	6818      	ldr	r0, [r3, #0]
 8001a78:	f004 041f 	and.w	r4, r4, #31
 8001a7c:	40e0      	lsrs	r0, r4
 8001a7e:	f000 0001 	and.w	r0, r0, #1
 8001a82:	bd10      	pop	{r4, pc}
 8001a84:	2001      	movs	r0, #1
 8001a86:	f7fe fbe5 	bl	8000254 <assert_param>
 8001a8a:	0963      	lsrs	r3, r4, #5
 8001a8c:	4a05      	ldr	r2, [pc, #20]	; (8001aa4 <RCC_GetFlagStatus+0x80>)
 8001a8e:	2b02      	cmp	r3, #2
 8001a90:	bf0c      	ite	eq
 8001a92:	6f10      	ldreq	r0, [r2, #112]	; 0x70
 8001a94:	6f50      	ldrne	r0, [r2, #116]	; 0x74
 8001a96:	f004 041f 	and.w	r4, r4, #31
 8001a9a:	40e0      	lsrs	r0, r4
 8001a9c:	f000 0001 	and.w	r0, r0, #1
 8001aa0:	bd10      	pop	{r4, pc}
 8001aa2:	bf00      	nop
 8001aa4:	40023800 	andmi	r3, r2, r0, lsl #16

08001aa8 <RCC_WaitForHSEStartUp>:
 8001aa8:	b500      	push	{lr}
 8001aaa:	b083      	sub	sp, #12
 8001aac:	2300      	movs	r3, #0
 8001aae:	9301      	str	r3, [sp, #4]
 8001ab0:	e000      	b.n	8001ab4 <RCC_WaitForHSEStartUp+0xc>
 8001ab2:	b948      	cbnz	r0, 8001ac8 <RCC_WaitForHSEStartUp+0x20>
 8001ab4:	2031      	movs	r0, #49	; 0x31
 8001ab6:	f7ff ffb5 	bl	8001a24 <RCC_GetFlagStatus>
 8001aba:	9b01      	ldr	r3, [sp, #4]
 8001abc:	1c5a      	adds	r2, r3, #1
 8001abe:	9201      	str	r2, [sp, #4]
 8001ac0:	9901      	ldr	r1, [sp, #4]
 8001ac2:	f5b1 6fa0 	cmp.w	r1, #1280	; 0x500
 8001ac6:	d1f4      	bne.n	8001ab2 <RCC_WaitForHSEStartUp+0xa>
 8001ac8:	2031      	movs	r0, #49	; 0x31
 8001aca:	f7ff ffab 	bl	8001a24 <RCC_GetFlagStatus>
 8001ace:	3800      	subs	r0, #0
 8001ad0:	bf18      	it	ne
 8001ad2:	2001      	movne	r0, #1
 8001ad4:	b003      	add	sp, #12
 8001ad6:	bd00      	pop	{pc}

08001ad8 <RCC_ClearFlag>:
 8001ad8:	4b02      	ldr	r3, [pc, #8]	; (8001ae4 <RCC_ClearFlag+0xc>)
 8001ada:	6f58      	ldr	r0, [r3, #116]	; 0x74
 8001adc:	f040 7280 	orr.w	r2, r0, #16777216	; 0x1000000
 8001ae0:	675a      	str	r2, [r3, #116]	; 0x74
 8001ae2:	4770      	bx	lr
 8001ae4:	40023800 	andmi	r3, r2, r0, lsl #16

08001ae8 <RCC_GetITStatus>:
 8001ae8:	1e41      	subs	r1, r0, #1
 8001aea:	b2cb      	uxtb	r3, r1
 8001aec:	2b01      	cmp	r3, #1
 8001aee:	b510      	push	{r4, lr}
 8001af0:	4604      	mov	r4, r0
 8001af2:	d90e      	bls.n	8001b12 <RCC_GetITStatus+0x2a>
 8001af4:	2804      	cmp	r0, #4
 8001af6:	d00c      	beq.n	8001b12 <RCC_GetITStatus+0x2a>
 8001af8:	2808      	cmp	r0, #8
 8001afa:	d00a      	beq.n	8001b12 <RCC_GetITStatus+0x2a>
 8001afc:	2810      	cmp	r0, #16
 8001afe:	d008      	beq.n	8001b12 <RCC_GetITStatus+0x2a>
 8001b00:	2880      	cmp	r0, #128	; 0x80
 8001b02:	d006      	beq.n	8001b12 <RCC_GetITStatus+0x2a>
 8001b04:	f1a0 0e20 	sub.w	lr, r0, #32
 8001b08:	f1de 0000 	rsbs	r0, lr, #0
 8001b0c:	eb40 000e 	adc.w	r0, r0, lr
 8001b10:	e000      	b.n	8001b14 <RCC_GetITStatus+0x2c>
 8001b12:	2001      	movs	r0, #1
 8001b14:	f7fe fb9e 	bl	8000254 <assert_param>
 8001b18:	4b03      	ldr	r3, [pc, #12]	; (8001b28 <RCC_GetITStatus+0x40>)
 8001b1a:	68da      	ldr	r2, [r3, #12]
 8001b1c:	4214      	tst	r4, r2
 8001b1e:	bf0c      	ite	eq
 8001b20:	2000      	moveq	r0, #0
 8001b22:	2001      	movne	r0, #1
 8001b24:	bd10      	pop	{r4, pc}
 8001b26:	bf00      	nop
 8001b28:	40023800 	andmi	r3, r2, r0, lsl #16

08001b2c <RCC_ClearITPendingBit>:
 8001b2c:	f010 0f40 	tst.w	r0, #64	; 0x40
 8001b30:	b510      	push	{r4, lr}
 8001b32:	4604      	mov	r4, r0
 8001b34:	d107      	bne.n	8001b46 <RCC_ClearITPendingBit+0x1a>
 8001b36:	3800      	subs	r0, #0
 8001b38:	bf18      	it	ne
 8001b3a:	2001      	movne	r0, #1
 8001b3c:	f7fe fb8a 	bl	8000254 <assert_param>
 8001b40:	4b04      	ldr	r3, [pc, #16]	; (8001b54 <RCC_ClearITPendingBit+0x28>)
 8001b42:	701c      	strb	r4, [r3, #0]
 8001b44:	bd10      	pop	{r4, pc}
 8001b46:	2000      	movs	r0, #0
 8001b48:	f7fe fb84 	bl	8000254 <assert_param>
 8001b4c:	4b01      	ldr	r3, [pc, #4]	; (8001b54 <RCC_ClearITPendingBit+0x28>)
 8001b4e:	701c      	strb	r4, [r3, #0]
 8001b50:	bd10      	pop	{r4, pc}
 8001b52:	bf00      	nop
 8001b54:	4002380e 	andmi	r3, r2, lr, lsl #16

08001b58 <sqrtf>:
 8001b58:	b570      	push	{r4, r5, r6, lr}
 8001b5a:	b08a      	sub	sp, #40	; 0x28
 8001b5c:	4606      	mov	r6, r0
 8001b5e:	f000 f84d 	bl	8001bfc <__ieee754_sqrtf>
 8001b62:	f240 0428 	movw	r4, #40	; 0x28
 8001b66:	f2c2 0400 	movt	r4, #8192	; 0x2000
 8001b6a:	f994 3000 	ldrsb.w	r3, [r4]
 8001b6e:	f1b3 3fff 	cmp.w	r3, #4294967295
 8001b72:	4605      	mov	r5, r0
 8001b74:	d030      	beq.n	8001bd8 <sqrtf+0x80>
 8001b76:	4630      	mov	r0, r6
 8001b78:	f000 f89a 	bl	8001cb0 <__fpclassifyf>
 8001b7c:	2800      	cmp	r0, #0
 8001b7e:	d02b      	beq.n	8001bd8 <sqrtf+0x80>
 8001b80:	4630      	mov	r0, r6
 8001b82:	2100      	movs	r1, #0
 8001b84:	f000 ff98 	bl	8002ab8 <__aeabi_fcmplt>
 8001b88:	b330      	cbz	r0, 8001bd8 <sqrtf+0x80>
 8001b8a:	f642 3360 	movw	r3, #11104	; 0x2b60
 8001b8e:	4630      	mov	r0, r6
 8001b90:	f6c0 0300 	movt	r3, #2048	; 0x800
 8001b94:	9301      	str	r3, [sp, #4]
 8001b96:	2301      	movs	r3, #1
 8001b98:	9300      	str	r3, [sp, #0]
 8001b9a:	2300      	movs	r3, #0
 8001b9c:	9308      	str	r3, [sp, #32]
 8001b9e:	f000 fa29 	bl	8001ff4 <__aeabi_f2d>
 8001ba2:	7824      	ldrb	r4, [r4, #0]
 8001ba4:	e9cd 0104 	strd	r0, r1, [sp, #16]
 8001ba8:	e9cd 0102 	strd	r0, r1, [sp, #8]
 8001bac:	b1bc      	cbz	r4, 8001bde <sqrtf+0x86>
 8001bae:	2000      	movs	r0, #0
 8001bb0:	2100      	movs	r1, #0
 8001bb2:	4602      	mov	r2, r0
 8001bb4:	460b      	mov	r3, r1
 8001bb6:	f000 fb9b 	bl	80022f0 <__aeabi_ddiv>
 8001bba:	2c02      	cmp	r4, #2
 8001bbc:	e9cd 0106 	strd	r0, r1, [sp, #24]
 8001bc0:	d111      	bne.n	8001be6 <sqrtf+0x8e>
 8001bc2:	f000 ffa1 	bl	8002b08 <__errno>
 8001bc6:	2321      	movs	r3, #33	; 0x21
 8001bc8:	6003      	str	r3, [r0, #0]
 8001bca:	9b08      	ldr	r3, [sp, #32]
 8001bcc:	b98b      	cbnz	r3, 8001bf2 <sqrtf+0x9a>
 8001bce:	e9dd 0106 	ldrd	r0, r1, [sp, #24]
 8001bd2:	f000 fc75 	bl	80024c0 <__aeabi_d2f>
 8001bd6:	4605      	mov	r5, r0
 8001bd8:	4628      	mov	r0, r5
 8001bda:	b00a      	add	sp, #40	; 0x28
 8001bdc:	bd70      	pop	{r4, r5, r6, pc}
 8001bde:	2200      	movs	r2, #0
 8001be0:	2300      	movs	r3, #0
 8001be2:	e9cd 2306 	strd	r2, r3, [sp, #24]
 8001be6:	4668      	mov	r0, sp
 8001be8:	f000 f860 	bl	8001cac <matherr>
 8001bec:	2800      	cmp	r0, #0
 8001bee:	d1ec      	bne.n	8001bca <sqrtf+0x72>
 8001bf0:	e7e7      	b.n	8001bc2 <sqrtf+0x6a>
 8001bf2:	f000 ff89 	bl	8002b08 <__errno>
 8001bf6:	9b08      	ldr	r3, [sp, #32]
 8001bf8:	6003      	str	r3, [r0, #0]
 8001bfa:	e7e8      	b.n	8001bce <sqrtf+0x76>

08001bfc <__ieee754_sqrtf>:
 8001bfc:	f020 4200 	bic.w	r2, r0, #2147483648	; 0x80000000
 8001c00:	4603      	mov	r3, r0
 8001c02:	f1b2 4fff 	cmp.w	r2, #2139095040	; 0x7f800000
 8001c06:	b570      	push	{r4, r5, r6, lr}
 8001c08:	4604      	mov	r4, r0
 8001c0a:	d23a      	bcs.n	8001c82 <__ieee754_sqrtf+0x86>
 8001c0c:	2a00      	cmp	r2, #0
 8001c0e:	d036      	beq.n	8001c7e <__ieee754_sqrtf+0x82>
 8001c10:	2800      	cmp	r0, #0
 8001c12:	db40      	blt.n	8001c96 <__ieee754_sqrtf+0x9a>
 8001c14:	15c1      	asrs	r1, r0, #23
 8001c16:	f5b2 0f00 	cmp.w	r2, #8388608	; 0x800000
 8001c1a:	d209      	bcs.n	8001c30 <__ieee754_sqrtf+0x34>
 8001c1c:	f410 0200 	ands.w	r2, r0, #8388608	; 0x800000
 8001c20:	d141      	bne.n	8001ca6 <__ieee754_sqrtf+0xaa>
 8001c22:	005b      	lsls	r3, r3, #1
 8001c24:	3201      	adds	r2, #1
 8001c26:	f413 0f00 	tst.w	r3, #8388608	; 0x800000
 8001c2a:	d0fa      	beq.n	8001c22 <__ieee754_sqrtf+0x26>
 8001c2c:	3101      	adds	r1, #1
 8001c2e:	1a89      	subs	r1, r1, r2
 8001c30:	f023 437f 	bic.w	r3, r3, #4278190080	; 0xff000000
 8001c34:	f1a1 027f 	sub.w	r2, r1, #127	; 0x7f
 8001c38:	f423 0300 	bic.w	r3, r3, #8388608	; 0x800000
 8001c3c:	f012 0f01 	tst.w	r2, #1
 8001c40:	f443 0300 	orr.w	r3, r3, #8388608	; 0x800000
 8001c44:	bf18      	it	ne
 8001c46:	005b      	lslne	r3, r3, #1
 8001c48:	2600      	movs	r6, #0
 8001c4a:	1054      	asrs	r4, r2, #1
 8001c4c:	2119      	movs	r1, #25
 8001c4e:	005b      	lsls	r3, r3, #1
 8001c50:	4635      	mov	r5, r6
 8001c52:	f04f 7280 	mov.w	r2, #16777216	; 0x1000000
 8001c56:	18a8      	adds	r0, r5, r2
 8001c58:	4298      	cmp	r0, r3
 8001c5a:	bfde      	ittt	le
 8001c5c:	ebc0 0303 	rsble	r3, r0, r3
 8001c60:	1885      	addle	r5, r0, r2
 8001c62:	18b6      	addle	r6, r6, r2
 8001c64:	0852      	lsrs	r2, r2, #1
 8001c66:	005b      	lsls	r3, r3, #1
 8001c68:	3901      	subs	r1, #1
 8001c6a:	d1f4      	bne.n	8001c56 <__ieee754_sqrtf+0x5a>
 8001c6c:	b113      	cbz	r3, 8001c74 <__ieee754_sqrtf+0x78>
 8001c6e:	f006 0301 	and.w	r3, r6, #1
 8001c72:	199e      	adds	r6, r3, r6
 8001c74:	05e4      	lsls	r4, r4, #23
 8001c76:	f104 547c 	add.w	r4, r4, #1056964608	; 0x3f000000
 8001c7a:	eb04 0466 	add.w	r4, r4, r6, asr #1
 8001c7e:	4620      	mov	r0, r4
 8001c80:	bd70      	pop	{r4, r5, r6, pc}
 8001c82:	4601      	mov	r1, r0
 8001c84:	f000 fd7a 	bl	800277c <__aeabi_fmul>
 8001c88:	4601      	mov	r1, r0
 8001c8a:	4620      	mov	r0, r4
 8001c8c:	f000 fc6e 	bl	800256c <__addsf3>
 8001c90:	4604      	mov	r4, r0
 8001c92:	4620      	mov	r0, r4
 8001c94:	bd70      	pop	{r4, r5, r6, pc}
 8001c96:	4601      	mov	r1, r0
 8001c98:	f000 fc66 	bl	8002568 <__aeabi_fsub>
 8001c9c:	4601      	mov	r1, r0
 8001c9e:	f000 fe21 	bl	80028e4 <__aeabi_fdiv>
 8001ca2:	4604      	mov	r4, r0
 8001ca4:	e7eb      	b.n	8001c7e <__ieee754_sqrtf+0x82>
 8001ca6:	2200      	movs	r2, #0
 8001ca8:	e7c0      	b.n	8001c2c <__ieee754_sqrtf+0x30>
 8001caa:	bf00      	nop

08001cac <matherr>:
 8001cac:	2000      	movs	r0, #0
 8001cae:	4770      	bx	lr

08001cb0 <__fpclassifyf>:
 8001cb0:	f1d0 0301 	rsbs	r3, r0, #1
 8001cb4:	bf38      	it	cc
 8001cb6:	2300      	movcc	r3, #0
 8001cb8:	f1b0 4f00 	cmp.w	r0, #2147483648	; 0x80000000
 8001cbc:	bf08      	it	eq
 8001cbe:	f043 0301 	orreq.w	r3, r3, #1
 8001cc2:	2b00      	cmp	r3, #0
 8001cc4:	d12e      	bne.n	8001d24 <__fpclassifyf+0x74>
 8001cc6:	f5a0 0300 	sub.w	r3, r0, #8388608	; 0x800000
 8001cca:	f100 42ff 	add.w	r2, r0, #2139095040	; 0x7f800000
 8001cce:	f1b3 4ffe 	cmp.w	r3, #2130706432	; 0x7f000000
 8001cd2:	bf2c      	ite	cs
 8001cd4:	2300      	movcs	r3, #0
 8001cd6:	2301      	movcc	r3, #1
 8001cd8:	f1b2 4ffe 	cmp.w	r2, #2130706432	; 0x7f000000
 8001cdc:	bf38      	it	cc
 8001cde:	f043 0301 	orrcc.w	r3, r3, #1
 8001ce2:	b9eb      	cbnz	r3, 8001d20 <__fpclassifyf+0x70>
 8001ce4:	f64f 73fe 	movw	r3, #65534	; 0xfffe
 8001ce8:	1e41      	subs	r1, r0, #1
 8001cea:	f2c0 037f 	movt	r3, #127	; 0x7f
 8001cee:	f100 4200 	add.w	r2, r0, #2147483648	; 0x80000000
 8001cf2:	3a01      	subs	r2, #1
 8001cf4:	4299      	cmp	r1, r3
 8001cf6:	bf8c      	ite	hi
 8001cf8:	2100      	movhi	r1, #0
 8001cfa:	2101      	movls	r1, #1
 8001cfc:	429a      	cmp	r2, r3
 8001cfe:	bf8c      	ite	hi
 8001d00:	460b      	movhi	r3, r1
 8001d02:	f041 0301 	orrls.w	r3, r1, #1
 8001d06:	b97b      	cbnz	r3, 8001d28 <__fpclassifyf+0x78>
 8001d08:	f510 0f00 	cmn.w	r0, #8388608	; 0x800000
 8001d0c:	bf14      	ite	ne
 8001d0e:	2300      	movne	r3, #0
 8001d10:	2301      	moveq	r3, #1
 8001d12:	f1b0 4fff 	cmp.w	r0, #2139095040	; 0x7f800000
 8001d16:	bf14      	ite	ne
 8001d18:	4618      	movne	r0, r3
 8001d1a:	f043 0001 	orreq.w	r0, r3, #1
 8001d1e:	4770      	bx	lr
 8001d20:	2004      	movs	r0, #4
 8001d22:	4770      	bx	lr
 8001d24:	2002      	movs	r0, #2
 8001d26:	4770      	bx	lr
 8001d28:	2003      	movs	r0, #3
 8001d2a:	4770      	bx	lr

08001d2c <__aeabi_drsub>:
 8001d2c:	f081 4100 	eor.w	r1, r1, #2147483648	; 0x80000000
 8001d30:	e002      	b.n	8001d38 <__adddf3>
 8001d32:	bf00      	nop

08001d34 <__aeabi_dsub>:
 8001d34:	f083 4300 	eor.w	r3, r3, #2147483648	; 0x80000000

08001d38 <__adddf3>:
 8001d38:	b530      	push	{r4, r5, lr}
 8001d3a:	ea4f 0441 	mov.w	r4, r1, lsl #1
 8001d3e:	ea4f 0543 	mov.w	r5, r3, lsl #1
 8001d42:	ea94 0f05 	teq	r4, r5
 8001d46:	bf08      	it	eq
 8001d48:	ea90 0f02 	teqeq	r0, r2
 8001d4c:	bf1f      	itttt	ne
 8001d4e:	ea54 0c00 	orrsne.w	ip, r4, r0
 8001d52:	ea55 0c02 	orrsne.w	ip, r5, r2
 8001d56:	ea7f 5c64 	mvnsne.w	ip, r4, asr #21
 8001d5a:	ea7f 5c65 	mvnsne.w	ip, r5, asr #21
 8001d5e:	f000 80e2 	beq.w	8001f26 <__adddf3+0x1ee>
 8001d62:	ea4f 5454 	mov.w	r4, r4, lsr #21
 8001d66:	ebd4 5555 	rsbs	r5, r4, r5, lsr #21
 8001d6a:	bfb8      	it	lt
 8001d6c:	426d      	neglt	r5, r5
 8001d6e:	dd0c      	ble.n	8001d8a <__adddf3+0x52>
 8001d70:	442c      	add	r4, r5
 8001d72:	ea80 0202 	eor.w	r2, r0, r2
 8001d76:	ea81 0303 	eor.w	r3, r1, r3
 8001d7a:	ea82 0000 	eor.w	r0, r2, r0
 8001d7e:	ea83 0101 	eor.w	r1, r3, r1
 8001d82:	ea80 0202 	eor.w	r2, r0, r2
 8001d86:	ea81 0303 	eor.w	r3, r1, r3
 8001d8a:	2d36      	cmp	r5, #54	; 0x36
 8001d8c:	bf88      	it	hi
 8001d8e:	bd30      	pophi	{r4, r5, pc}
 8001d90:	f011 4f00 	tst.w	r1, #2147483648	; 0x80000000
 8001d94:	ea4f 3101 	mov.w	r1, r1, lsl #12
 8001d98:	f44f 1c80 	mov.w	ip, #1048576	; 0x100000
 8001d9c:	ea4c 3111 	orr.w	r1, ip, r1, lsr #12
 8001da0:	d002      	beq.n	8001da8 <__adddf3+0x70>
 8001da2:	4240      	negs	r0, r0
 8001da4:	eb61 0141 	sbc.w	r1, r1, r1, lsl #1
 8001da8:	f013 4f00 	tst.w	r3, #2147483648	; 0x80000000
 8001dac:	ea4f 3303 	mov.w	r3, r3, lsl #12
 8001db0:	ea4c 3313 	orr.w	r3, ip, r3, lsr #12
 8001db4:	d002      	beq.n	8001dbc <__adddf3+0x84>
 8001db6:	4252      	negs	r2, r2
 8001db8:	eb63 0343 	sbc.w	r3, r3, r3, lsl #1
 8001dbc:	ea94 0f05 	teq	r4, r5
 8001dc0:	f000 80a7 	beq.w	8001f12 <__adddf3+0x1da>
 8001dc4:	f1a4 0401 	sub.w	r4, r4, #1
 8001dc8:	f1d5 0e20 	rsbs	lr, r5, #32
 8001dcc:	db0d      	blt.n	8001dea <__adddf3+0xb2>
 8001dce:	fa02 fc0e 	lsl.w	ip, r2, lr
 8001dd2:	fa22 f205 	lsr.w	r2, r2, r5
 8001dd6:	1880      	adds	r0, r0, r2
 8001dd8:	f141 0100 	adc.w	r1, r1, #0
 8001ddc:	fa03 f20e 	lsl.w	r2, r3, lr
 8001de0:	1880      	adds	r0, r0, r2
 8001de2:	fa43 f305 	asr.w	r3, r3, r5
 8001de6:	4159      	adcs	r1, r3
 8001de8:	e00e      	b.n	8001e08 <__adddf3+0xd0>
 8001dea:	f1a5 0520 	sub.w	r5, r5, #32
 8001dee:	f10e 0e20 	add.w	lr, lr, #32
 8001df2:	2a01      	cmp	r2, #1
 8001df4:	fa03 fc0e 	lsl.w	ip, r3, lr
 8001df8:	bf28      	it	cs
 8001dfa:	f04c 0c02 	orrcs.w	ip, ip, #2
 8001dfe:	fa43 f305 	asr.w	r3, r3, r5
 8001e02:	18c0      	adds	r0, r0, r3
 8001e04:	eb51 71e3 	adcs.w	r1, r1, r3, asr #31
 8001e08:	f001 4500 	and.w	r5, r1, #2147483648	; 0x80000000
 8001e0c:	d507      	bpl.n	8001e1e <__adddf3+0xe6>
 8001e0e:	f04f 0e00 	mov.w	lr, #0
 8001e12:	f1dc 0c00 	rsbs	ip, ip, #0
 8001e16:	eb7e 0000 	sbcs.w	r0, lr, r0
 8001e1a:	eb6e 0101 	sbc.w	r1, lr, r1
 8001e1e:	f5b1 1f80 	cmp.w	r1, #1048576	; 0x100000
 8001e22:	d31b      	bcc.n	8001e5c <__adddf3+0x124>
 8001e24:	f5b1 1f00 	cmp.w	r1, #2097152	; 0x200000
 8001e28:	d30c      	bcc.n	8001e44 <__adddf3+0x10c>
 8001e2a:	0849      	lsrs	r1, r1, #1
 8001e2c:	ea5f 0030 	movs.w	r0, r0, rrx
 8001e30:	ea4f 0c3c 	mov.w	ip, ip, rrx
 8001e34:	f104 0401 	add.w	r4, r4, #1
 8001e38:	ea4f 5244 	mov.w	r2, r4, lsl #21
 8001e3c:	f512 0f80 	cmn.w	r2, #4194304	; 0x400000
 8001e40:	f080 809a 	bcs.w	8001f78 <__adddf3+0x240>
 8001e44:	f1bc 4f00 	cmp.w	ip, #2147483648	; 0x80000000
 8001e48:	bf08      	it	eq
 8001e4a:	ea5f 0c50 	movseq.w	ip, r0, lsr #1
 8001e4e:	f150 0000 	adcs.w	r0, r0, #0
 8001e52:	eb41 5104 	adc.w	r1, r1, r4, lsl #20
 8001e56:	ea41 0105 	orr.w	r1, r1, r5
 8001e5a:	bd30      	pop	{r4, r5, pc}
 8001e5c:	ea5f 0c4c 	movs.w	ip, ip, lsl #1
 8001e60:	4140      	adcs	r0, r0
 8001e62:	eb41 0101 	adc.w	r1, r1, r1
 8001e66:	f411 1f80 	tst.w	r1, #1048576	; 0x100000
 8001e6a:	f1a4 0401 	sub.w	r4, r4, #1
 8001e6e:	d1e9      	bne.n	8001e44 <__adddf3+0x10c>
 8001e70:	f091 0f00 	teq	r1, #0
 8001e74:	bf04      	itt	eq
 8001e76:	4601      	moveq	r1, r0
 8001e78:	2000      	moveq	r0, #0
 8001e7a:	fab1 f381 	clz	r3, r1
 8001e7e:	bf08      	it	eq
 8001e80:	3320      	addeq	r3, #32
 8001e82:	f1a3 030b 	sub.w	r3, r3, #11
 8001e86:	f1b3 0220 	subs.w	r2, r3, #32
 8001e8a:	da0c      	bge.n	8001ea6 <__adddf3+0x16e>
 8001e8c:	320c      	adds	r2, #12
 8001e8e:	dd08      	ble.n	8001ea2 <__adddf3+0x16a>
 8001e90:	f102 0c14 	add.w	ip, r2, #20
 8001e94:	f1c2 020c 	rsb	r2, r2, #12
 8001e98:	fa01 f00c 	lsl.w	r0, r1, ip
 8001e9c:	fa21 f102 	lsr.w	r1, r1, r2
 8001ea0:	e00c      	b.n	8001ebc <__adddf3+0x184>
 8001ea2:	f102 0214 	add.w	r2, r2, #20
 8001ea6:	bfd8      	it	le
 8001ea8:	f1c2 0c20 	rsble	ip, r2, #32
 8001eac:	fa01 f102 	lsl.w	r1, r1, r2
 8001eb0:	fa20 fc0c 	lsr.w	ip, r0, ip
 8001eb4:	bfdc      	itt	le
 8001eb6:	ea41 010c 	orrle.w	r1, r1, ip
 8001eba:	4090      	lslle	r0, r2
 8001ebc:	1ae4      	subs	r4, r4, r3
 8001ebe:	bfa2      	ittt	ge
 8001ec0:	eb01 5104 	addge.w	r1, r1, r4, lsl #20
 8001ec4:	4329      	orrge	r1, r5
 8001ec6:	bd30      	popge	{r4, r5, pc}
 8001ec8:	ea6f 0404 	mvn.w	r4, r4
 8001ecc:	3c1f      	subs	r4, #31
 8001ece:	da1c      	bge.n	8001f0a <__adddf3+0x1d2>
 8001ed0:	340c      	adds	r4, #12
 8001ed2:	dc0e      	bgt.n	8001ef2 <__adddf3+0x1ba>
 8001ed4:	f104 0414 	add.w	r4, r4, #20
 8001ed8:	f1c4 0220 	rsb	r2, r4, #32
 8001edc:	fa20 f004 	lsr.w	r0, r0, r4
 8001ee0:	fa01 f302 	lsl.w	r3, r1, r2
 8001ee4:	ea40 0003 	orr.w	r0, r0, r3
 8001ee8:	fa21 f304 	lsr.w	r3, r1, r4
 8001eec:	ea45 0103 	orr.w	r1, r5, r3
 8001ef0:	bd30      	pop	{r4, r5, pc}
 8001ef2:	f1c4 040c 	rsb	r4, r4, #12
 8001ef6:	f1c4 0220 	rsb	r2, r4, #32
 8001efa:	fa20 f002 	lsr.w	r0, r0, r2
 8001efe:	fa01 f304 	lsl.w	r3, r1, r4
 8001f02:	ea40 0003 	orr.w	r0, r0, r3
 8001f06:	4629      	mov	r1, r5
 8001f08:	bd30      	pop	{r4, r5, pc}
 8001f0a:	fa21 f004 	lsr.w	r0, r1, r4
 8001f0e:	4629      	mov	r1, r5
 8001f10:	bd30      	pop	{r4, r5, pc}
 8001f12:	f094 0f00 	teq	r4, #0
 8001f16:	f483 1380 	eor.w	r3, r3, #1048576	; 0x100000
 8001f1a:	bf06      	itte	eq
 8001f1c:	f481 1180 	eoreq.w	r1, r1, #1048576	; 0x100000
 8001f20:	3401      	addeq	r4, #1
 8001f22:	3d01      	subne	r5, #1
 8001f24:	e74e      	b.n	8001dc4 <__adddf3+0x8c>
 8001f26:	ea7f 5c64 	mvns.w	ip, r4, asr #21
 8001f2a:	bf18      	it	ne
 8001f2c:	ea7f 5c65 	mvnsne.w	ip, r5, asr #21
 8001f30:	d029      	beq.n	8001f86 <__adddf3+0x24e>
 8001f32:	ea94 0f05 	teq	r4, r5
 8001f36:	bf08      	it	eq
 8001f38:	ea90 0f02 	teqeq	r0, r2
 8001f3c:	d005      	beq.n	8001f4a <__adddf3+0x212>
 8001f3e:	ea54 0c00 	orrs.w	ip, r4, r0
 8001f42:	bf04      	itt	eq
 8001f44:	4619      	moveq	r1, r3
 8001f46:	4610      	moveq	r0, r2
 8001f48:	bd30      	pop	{r4, r5, pc}
 8001f4a:	ea91 0f03 	teq	r1, r3
 8001f4e:	bf1e      	ittt	ne
 8001f50:	2100      	movne	r1, #0
 8001f52:	2000      	movne	r0, #0
 8001f54:	bd30      	popne	{r4, r5, pc}
 8001f56:	ea5f 5c54 	movs.w	ip, r4, lsr #21
 8001f5a:	d105      	bne.n	8001f68 <__adddf3+0x230>
 8001f5c:	0040      	lsls	r0, r0, #1
 8001f5e:	4149      	adcs	r1, r1
 8001f60:	bf28      	it	cs
 8001f62:	f041 4100 	orrcs.w	r1, r1, #2147483648	; 0x80000000
 8001f66:	bd30      	pop	{r4, r5, pc}
 8001f68:	f514 0480 	adds.w	r4, r4, #4194304	; 0x400000
 8001f6c:	bf3c      	itt	cc
 8001f6e:	f501 1180 	addcc.w	r1, r1, #1048576	; 0x100000
 8001f72:	bd30      	popcc	{r4, r5, pc}
 8001f74:	f001 4500 	and.w	r5, r1, #2147483648	; 0x80000000
 8001f78:	f045 41fe 	orr.w	r1, r5, #2130706432	; 0x7f000000
 8001f7c:	f441 0170 	orr.w	r1, r1, #15728640	; 0xf00000
 8001f80:	f04f 0000 	mov.w	r0, #0
 8001f84:	bd30      	pop	{r4, r5, pc}
 8001f86:	ea7f 5c64 	mvns.w	ip, r4, asr #21
 8001f8a:	bf1a      	itte	ne
 8001f8c:	4619      	movne	r1, r3
 8001f8e:	4610      	movne	r0, r2
 8001f90:	ea7f 5c65 	mvnseq.w	ip, r5, asr #21
 8001f94:	bf1c      	itt	ne
 8001f96:	460b      	movne	r3, r1
 8001f98:	4602      	movne	r2, r0
 8001f9a:	ea50 3401 	orrs.w	r4, r0, r1, lsl #12
 8001f9e:	bf06      	itte	eq
 8001fa0:	ea52 3503 	orrseq.w	r5, r2, r3, lsl #12
 8001fa4:	ea91 0f03 	teqeq	r1, r3
 8001fa8:	f441 2100 	orrne.w	r1, r1, #524288	; 0x80000
 8001fac:	bd30      	pop	{r4, r5, pc}
 8001fae:	bf00      	nop

08001fb0 <__aeabi_ui2d>:
 8001fb0:	f090 0f00 	teq	r0, #0
 8001fb4:	bf04      	itt	eq
 8001fb6:	2100      	moveq	r1, #0
 8001fb8:	4770      	bxeq	lr
 8001fba:	b530      	push	{r4, r5, lr}
 8001fbc:	f44f 6480 	mov.w	r4, #1024	; 0x400
 8001fc0:	f104 0432 	add.w	r4, r4, #50	; 0x32
 8001fc4:	f04f 0500 	mov.w	r5, #0
 8001fc8:	f04f 0100 	mov.w	r1, #0
 8001fcc:	e750      	b.n	8001e70 <__adddf3+0x138>
 8001fce:	bf00      	nop

08001fd0 <__aeabi_i2d>:
 8001fd0:	f090 0f00 	teq	r0, #0
 8001fd4:	bf04      	itt	eq
 8001fd6:	2100      	moveq	r1, #0
 8001fd8:	4770      	bxeq	lr
 8001fda:	b530      	push	{r4, r5, lr}
 8001fdc:	f44f 6480 	mov.w	r4, #1024	; 0x400
 8001fe0:	f104 0432 	add.w	r4, r4, #50	; 0x32
 8001fe4:	f010 4500 	ands.w	r5, r0, #2147483648	; 0x80000000
 8001fe8:	bf48      	it	mi
 8001fea:	4240      	negmi	r0, r0
 8001fec:	f04f 0100 	mov.w	r1, #0
 8001ff0:	e73e      	b.n	8001e70 <__adddf3+0x138>
 8001ff2:	bf00      	nop

08001ff4 <__aeabi_f2d>:
 8001ff4:	0042      	lsls	r2, r0, #1
 8001ff6:	ea4f 01e2 	mov.w	r1, r2, asr #3
 8001ffa:	ea4f 0131 	mov.w	r1, r1, rrx
 8001ffe:	ea4f 7002 	mov.w	r0, r2, lsl #28
 8002002:	bf1f      	itttt	ne
 8002004:	f012 437f 	andsne.w	r3, r2, #4278190080	; 0xff000000
 8002008:	f093 4f7f 	teqne	r3, #4278190080	; 0xff000000
 800200c:	f081 5160 	eorne.w	r1, r1, #939524096	; 0x38000000
 8002010:	4770      	bxne	lr
 8002012:	f092 0f00 	teq	r2, #0
 8002016:	bf14      	ite	ne
 8002018:	f093 4f7f 	teqne	r3, #4278190080	; 0xff000000
 800201c:	4770      	bxeq	lr
 800201e:	b530      	push	{r4, r5, lr}
 8002020:	f44f 7460 	mov.w	r4, #896	; 0x380
 8002024:	f001 4500 	and.w	r5, r1, #2147483648	; 0x80000000
 8002028:	f021 4100 	bic.w	r1, r1, #2147483648	; 0x80000000
 800202c:	e720      	b.n	8001e70 <__adddf3+0x138>
 800202e:	bf00      	nop

08002030 <__aeabi_ul2d>:
 8002030:	ea50 0201 	orrs.w	r2, r0, r1
 8002034:	bf08      	it	eq
 8002036:	4770      	bxeq	lr
 8002038:	b530      	push	{r4, r5, lr}
 800203a:	f04f 0500 	mov.w	r5, #0
 800203e:	e00a      	b.n	8002056 <__aeabi_l2d+0x16>

08002040 <__aeabi_l2d>:
 8002040:	ea50 0201 	orrs.w	r2, r0, r1
 8002044:	bf08      	it	eq
 8002046:	4770      	bxeq	lr
 8002048:	b530      	push	{r4, r5, lr}
 800204a:	f011 4500 	ands.w	r5, r1, #2147483648	; 0x80000000
 800204e:	d502      	bpl.n	8002056 <__aeabi_l2d+0x16>
 8002050:	4240      	negs	r0, r0
 8002052:	eb61 0141 	sbc.w	r1, r1, r1, lsl #1
 8002056:	f44f 6480 	mov.w	r4, #1024	; 0x400
 800205a:	f104 0432 	add.w	r4, r4, #50	; 0x32
 800205e:	ea5f 5c91 	movs.w	ip, r1, lsr #22
 8002062:	f43f aedc 	beq.w	8001e1e <__adddf3+0xe6>
 8002066:	f04f 0203 	mov.w	r2, #3
 800206a:	ea5f 0cdc 	movs.w	ip, ip, lsr #3
 800206e:	bf18      	it	ne
 8002070:	3203      	addne	r2, #3
 8002072:	ea5f 0cdc 	movs.w	ip, ip, lsr #3
 8002076:	bf18      	it	ne
 8002078:	3203      	addne	r2, #3
 800207a:	eb02 02dc 	add.w	r2, r2, ip, lsr #3
 800207e:	f1c2 0320 	rsb	r3, r2, #32
 8002082:	fa00 fc03 	lsl.w	ip, r0, r3
 8002086:	fa20 f002 	lsr.w	r0, r0, r2
 800208a:	fa01 fe03 	lsl.w	lr, r1, r3
 800208e:	ea40 000e 	orr.w	r0, r0, lr
 8002092:	fa21 f102 	lsr.w	r1, r1, r2
 8002096:	4414      	add	r4, r2
 8002098:	e6c1      	b.n	8001e1e <__adddf3+0xe6>
 800209a:	bf00      	nop

0800209c <__aeabi_dmul>:
 800209c:	b570      	push	{r4, r5, r6, lr}
 800209e:	f04f 0cff 	mov.w	ip, #255	; 0xff
 80020a2:	f44c 6ce0 	orr.w	ip, ip, #1792	; 0x700
 80020a6:	ea1c 5411 	ands.w	r4, ip, r1, lsr #20
 80020aa:	bf1d      	ittte	ne
 80020ac:	ea1c 5513 	andsne.w	r5, ip, r3, lsr #20
 80020b0:	ea94 0f0c 	teqne	r4, ip
 80020b4:	ea95 0f0c 	teqne	r5, ip
 80020b8:	f000 f8de 	bleq	8002278 <__aeabi_dmul+0x1dc>
 80020bc:	442c      	add	r4, r5
 80020be:	ea81 0603 	eor.w	r6, r1, r3
 80020c2:	ea21 514c 	bic.w	r1, r1, ip, lsl #21
 80020c6:	ea23 534c 	bic.w	r3, r3, ip, lsl #21
 80020ca:	ea50 3501 	orrs.w	r5, r0, r1, lsl #12
 80020ce:	bf18      	it	ne
 80020d0:	ea52 3503 	orrsne.w	r5, r2, r3, lsl #12
 80020d4:	f441 1180 	orr.w	r1, r1, #1048576	; 0x100000
 80020d8:	f443 1380 	orr.w	r3, r3, #1048576	; 0x100000
 80020dc:	d038      	beq.n	8002150 <__aeabi_dmul+0xb4>
 80020de:	fba0 ce02 	umull	ip, lr, r0, r2
 80020e2:	f04f 0500 	mov.w	r5, #0
 80020e6:	fbe1 e502 	umlal	lr, r5, r1, r2
 80020ea:	f006 4200 	and.w	r2, r6, #2147483648	; 0x80000000
 80020ee:	fbe0 e503 	umlal	lr, r5, r0, r3
 80020f2:	f04f 0600 	mov.w	r6, #0
 80020f6:	fbe1 5603 	umlal	r5, r6, r1, r3
 80020fa:	f09c 0f00 	teq	ip, #0
 80020fe:	bf18      	it	ne
 8002100:	f04e 0e01 	orrne.w	lr, lr, #1
 8002104:	f1a4 04ff 	sub.w	r4, r4, #255	; 0xff
 8002108:	f5b6 7f00 	cmp.w	r6, #512	; 0x200
 800210c:	f564 7440 	sbc.w	r4, r4, #768	; 0x300
 8002110:	d204      	bcs.n	800211c <__aeabi_dmul+0x80>
 8002112:	ea5f 0e4e 	movs.w	lr, lr, lsl #1
 8002116:	416d      	adcs	r5, r5
 8002118:	eb46 0606 	adc.w	r6, r6, r6
 800211c:	ea42 21c6 	orr.w	r1, r2, r6, lsl #11
 8002120:	ea41 5155 	orr.w	r1, r1, r5, lsr #21
 8002124:	ea4f 20c5 	mov.w	r0, r5, lsl #11
 8002128:	ea40 505e 	orr.w	r0, r0, lr, lsr #21
 800212c:	ea4f 2ece 	mov.w	lr, lr, lsl #11
 8002130:	f1b4 0cfd 	subs.w	ip, r4, #253	; 0xfd
 8002134:	bf88      	it	hi
 8002136:	f5bc 6fe0 	cmphi.w	ip, #1792	; 0x700
 800213a:	d81e      	bhi.n	800217a <__aeabi_dmul+0xde>
 800213c:	f1be 4f00 	cmp.w	lr, #2147483648	; 0x80000000
 8002140:	bf08      	it	eq
 8002142:	ea5f 0e50 	movseq.w	lr, r0, lsr #1
 8002146:	f150 0000 	adcs.w	r0, r0, #0
 800214a:	eb41 5104 	adc.w	r1, r1, r4, lsl #20
 800214e:	bd70      	pop	{r4, r5, r6, pc}
 8002150:	f006 4600 	and.w	r6, r6, #2147483648	; 0x80000000
 8002154:	ea46 0101 	orr.w	r1, r6, r1
 8002158:	ea40 0002 	orr.w	r0, r0, r2
 800215c:	ea81 0103 	eor.w	r1, r1, r3
 8002160:	ebb4 045c 	subs.w	r4, r4, ip, lsr #1
 8002164:	bfc2      	ittt	gt
 8002166:	ebd4 050c 	rsbsgt	r5, r4, ip
 800216a:	ea41 5104 	orrgt.w	r1, r1, r4, lsl #20
 800216e:	bd70      	popgt	{r4, r5, r6, pc}
 8002170:	f441 1180 	orr.w	r1, r1, #1048576	; 0x100000
 8002174:	f04f 0e00 	mov.w	lr, #0
 8002178:	3c01      	subs	r4, #1
 800217a:	f300 80ab 	bgt.w	80022d4 <__aeabi_dmul+0x238>
 800217e:	f114 0f36 	cmn.w	r4, #54	; 0x36
 8002182:	bfde      	ittt	le
 8002184:	2000      	movle	r0, #0
 8002186:	f001 4100 	andle.w	r1, r1, #2147483648	; 0x80000000
 800218a:	bd70      	pople	{r4, r5, r6, pc}
 800218c:	f1c4 0400 	rsb	r4, r4, #0
 8002190:	3c20      	subs	r4, #32
 8002192:	da35      	bge.n	8002200 <__aeabi_dmul+0x164>
 8002194:	340c      	adds	r4, #12
 8002196:	dc1b      	bgt.n	80021d0 <__aeabi_dmul+0x134>
 8002198:	f104 0414 	add.w	r4, r4, #20
 800219c:	f1c4 0520 	rsb	r5, r4, #32
 80021a0:	fa00 f305 	lsl.w	r3, r0, r5
 80021a4:	fa20 f004 	lsr.w	r0, r0, r4
 80021a8:	fa01 f205 	lsl.w	r2, r1, r5
 80021ac:	ea40 0002 	orr.w	r0, r0, r2
 80021b0:	f001 4200 	and.w	r2, r1, #2147483648	; 0x80000000
 80021b4:	f021 4100 	bic.w	r1, r1, #2147483648	; 0x80000000
 80021b8:	eb10 70d3 	adds.w	r0, r0, r3, lsr #31
 80021bc:	fa21 f604 	lsr.w	r6, r1, r4
 80021c0:	eb42 0106 	adc.w	r1, r2, r6
 80021c4:	ea5e 0e43 	orrs.w	lr, lr, r3, lsl #1
 80021c8:	bf08      	it	eq
 80021ca:	ea20 70d3 	biceq.w	r0, r0, r3, lsr #31
 80021ce:	bd70      	pop	{r4, r5, r6, pc}
 80021d0:	f1c4 040c 	rsb	r4, r4, #12
 80021d4:	f1c4 0520 	rsb	r5, r4, #32
 80021d8:	fa00 f304 	lsl.w	r3, r0, r4
 80021dc:	fa20 f005 	lsr.w	r0, r0, r5
 80021e0:	fa01 f204 	lsl.w	r2, r1, r4
 80021e4:	ea40 0002 	orr.w	r0, r0, r2
 80021e8:	f001 4100 	and.w	r1, r1, #2147483648	; 0x80000000
 80021ec:	eb10 70d3 	adds.w	r0, r0, r3, lsr #31
 80021f0:	f141 0100 	adc.w	r1, r1, #0
 80021f4:	ea5e 0e43 	orrs.w	lr, lr, r3, lsl #1
 80021f8:	bf08      	it	eq
 80021fa:	ea20 70d3 	biceq.w	r0, r0, r3, lsr #31
 80021fe:	bd70      	pop	{r4, r5, r6, pc}
 8002200:	f1c4 0520 	rsb	r5, r4, #32
 8002204:	fa00 f205 	lsl.w	r2, r0, r5
 8002208:	ea4e 0e02 	orr.w	lr, lr, r2
 800220c:	fa20 f304 	lsr.w	r3, r0, r4
 8002210:	fa01 f205 	lsl.w	r2, r1, r5
 8002214:	ea43 0302 	orr.w	r3, r3, r2
 8002218:	fa21 f004 	lsr.w	r0, r1, r4
 800221c:	f001 4100 	and.w	r1, r1, #2147483648	; 0x80000000
 8002220:	fa21 f204 	lsr.w	r2, r1, r4
 8002224:	ea20 0002 	bic.w	r0, r0, r2
 8002228:	eb00 70d3 	add.w	r0, r0, r3, lsr #31
 800222c:	ea5e 0e43 	orrs.w	lr, lr, r3, lsl #1
 8002230:	bf08      	it	eq
 8002232:	ea20 70d3 	biceq.w	r0, r0, r3, lsr #31
 8002236:	bd70      	pop	{r4, r5, r6, pc}
 8002238:	f094 0f00 	teq	r4, #0
 800223c:	d10f      	bne.n	800225e <__aeabi_dmul+0x1c2>
 800223e:	f001 4600 	and.w	r6, r1, #2147483648	; 0x80000000
 8002242:	0040      	lsls	r0, r0, #1
 8002244:	eb41 0101 	adc.w	r1, r1, r1
 8002248:	f411 1f80 	tst.w	r1, #1048576	; 0x100000
 800224c:	bf08      	it	eq
 800224e:	3c01      	subeq	r4, #1
 8002250:	d0f7      	beq.n	8002242 <__aeabi_dmul+0x1a6>
 8002252:	ea41 0106 	orr.w	r1, r1, r6
 8002256:	f095 0f00 	teq	r5, #0
 800225a:	bf18      	it	ne
 800225c:	4770      	bxne	lr
 800225e:	f003 4600 	and.w	r6, r3, #2147483648	; 0x80000000
 8002262:	0052      	lsls	r2, r2, #1
 8002264:	eb43 0303 	adc.w	r3, r3, r3
 8002268:	f413 1f80 	tst.w	r3, #1048576	; 0x100000
 800226c:	bf08      	it	eq
 800226e:	3d01      	subeq	r5, #1
 8002270:	d0f7      	beq.n	8002262 <__aeabi_dmul+0x1c6>
 8002272:	ea43 0306 	orr.w	r3, r3, r6
 8002276:	4770      	bx	lr
 8002278:	ea94 0f0c 	teq	r4, ip
 800227c:	ea0c 5513 	and.w	r5, ip, r3, lsr #20
 8002280:	bf18      	it	ne
 8002282:	ea95 0f0c 	teqne	r5, ip
 8002286:	d00c      	beq.n	80022a2 <__aeabi_dmul+0x206>
 8002288:	ea50 0641 	orrs.w	r6, r0, r1, lsl #1
 800228c:	bf18      	it	ne
 800228e:	ea52 0643 	orrsne.w	r6, r2, r3, lsl #1
 8002292:	d1d1      	bne.n	8002238 <__aeabi_dmul+0x19c>
 8002294:	ea81 0103 	eor.w	r1, r1, r3
 8002298:	f001 4100 	and.w	r1, r1, #2147483648	; 0x80000000
 800229c:	f04f 0000 	mov.w	r0, #0
 80022a0:	bd70      	pop	{r4, r5, r6, pc}
 80022a2:	ea50 0641 	orrs.w	r6, r0, r1, lsl #1
 80022a6:	bf06      	itte	eq
 80022a8:	4610      	moveq	r0, r2
 80022aa:	4619      	moveq	r1, r3
 80022ac:	ea52 0643 	orrsne.w	r6, r2, r3, lsl #1
 80022b0:	d019      	beq.n	80022e6 <__aeabi_dmul+0x24a>
 80022b2:	ea94 0f0c 	teq	r4, ip
 80022b6:	d102      	bne.n	80022be <__aeabi_dmul+0x222>
 80022b8:	ea50 3601 	orrs.w	r6, r0, r1, lsl #12
 80022bc:	d113      	bne.n	80022e6 <__aeabi_dmul+0x24a>
 80022be:	ea95 0f0c 	teq	r5, ip
 80022c2:	d105      	bne.n	80022d0 <__aeabi_dmul+0x234>
 80022c4:	ea52 3603 	orrs.w	r6, r2, r3, lsl #12
 80022c8:	bf1c      	itt	ne
 80022ca:	4610      	movne	r0, r2
 80022cc:	4619      	movne	r1, r3
 80022ce:	d10a      	bne.n	80022e6 <__aeabi_dmul+0x24a>
 80022d0:	ea81 0103 	eor.w	r1, r1, r3
 80022d4:	f001 4100 	and.w	r1, r1, #2147483648	; 0x80000000
 80022d8:	f041 41fe 	orr.w	r1, r1, #2130706432	; 0x7f000000
 80022dc:	f441 0170 	orr.w	r1, r1, #15728640	; 0xf00000
 80022e0:	f04f 0000 	mov.w	r0, #0
 80022e4:	bd70      	pop	{r4, r5, r6, pc}
 80022e6:	f041 41fe 	orr.w	r1, r1, #2130706432	; 0x7f000000
 80022ea:	f441 0178 	orr.w	r1, r1, #16252928	; 0xf80000
 80022ee:	bd70      	pop	{r4, r5, r6, pc}

080022f0 <__aeabi_ddiv>:
 80022f0:	b570      	push	{r4, r5, r6, lr}
 80022f2:	f04f 0cff 	mov.w	ip, #255	; 0xff
 80022f6:	f44c 6ce0 	orr.w	ip, ip, #1792	; 0x700
 80022fa:	ea1c 5411 	ands.w	r4, ip, r1, lsr #20
 80022fe:	bf1d      	ittte	ne
 8002300:	ea1c 5513 	andsne.w	r5, ip, r3, lsr #20
 8002304:	ea94 0f0c 	teqne	r4, ip
 8002308:	ea95 0f0c 	teqne	r5, ip
 800230c:	f000 f8a7 	bleq	800245e <__aeabi_ddiv+0x16e>
 8002310:	eba4 0405 	sub.w	r4, r4, r5
 8002314:	ea81 0e03 	eor.w	lr, r1, r3
 8002318:	ea52 3503 	orrs.w	r5, r2, r3, lsl #12
 800231c:	ea4f 3101 	mov.w	r1, r1, lsl #12
 8002320:	f000 8088 	beq.w	8002434 <__aeabi_ddiv+0x144>
 8002324:	ea4f 3303 	mov.w	r3, r3, lsl #12
 8002328:	f04f 5580 	mov.w	r5, #268435456	; 0x10000000
 800232c:	ea45 1313 	orr.w	r3, r5, r3, lsr #4
 8002330:	ea43 6312 	orr.w	r3, r3, r2, lsr #24
 8002334:	ea4f 2202 	mov.w	r2, r2, lsl #8
 8002338:	ea45 1511 	orr.w	r5, r5, r1, lsr #4
 800233c:	ea45 6510 	orr.w	r5, r5, r0, lsr #24
 8002340:	ea4f 2600 	mov.w	r6, r0, lsl #8
 8002344:	f00e 4100 	and.w	r1, lr, #2147483648	; 0x80000000
 8002348:	429d      	cmp	r5, r3
 800234a:	bf08      	it	eq
 800234c:	4296      	cmpeq	r6, r2
 800234e:	f144 04fd 	adc.w	r4, r4, #253	; 0xfd
 8002352:	f504 7440 	add.w	r4, r4, #768	; 0x300
 8002356:	d202      	bcs.n	800235e <__aeabi_ddiv+0x6e>
 8002358:	085b      	lsrs	r3, r3, #1
 800235a:	ea4f 0232 	mov.w	r2, r2, rrx
 800235e:	1ab6      	subs	r6, r6, r2
 8002360:	eb65 0503 	sbc.w	r5, r5, r3
 8002364:	085b      	lsrs	r3, r3, #1
 8002366:	ea4f 0232 	mov.w	r2, r2, rrx
 800236a:	f44f 1080 	mov.w	r0, #1048576	; 0x100000
 800236e:	f44f 2c00 	mov.w	ip, #524288	; 0x80000
 8002372:	ebb6 0e02 	subs.w	lr, r6, r2
 8002376:	eb75 0e03 	sbcs.w	lr, r5, r3
 800237a:	bf22      	ittt	cs
 800237c:	1ab6      	subcs	r6, r6, r2
 800237e:	4675      	movcs	r5, lr
 8002380:	ea40 000c 	orrcs.w	r0, r0, ip
 8002384:	085b      	lsrs	r3, r3, #1
 8002386:	ea4f 0232 	mov.w	r2, r2, rrx
 800238a:	ebb6 0e02 	subs.w	lr, r6, r2
 800238e:	eb75 0e03 	sbcs.w	lr, r5, r3
 8002392:	bf22      	ittt	cs
 8002394:	1ab6      	subcs	r6, r6, r2
 8002396:	4675      	movcs	r5, lr
 8002398:	ea40 005c 	orrcs.w	r0, r0, ip, lsr #1
 800239c:	085b      	lsrs	r3, r3, #1
 800239e:	ea4f 0232 	mov.w	r2, r2, rrx
 80023a2:	ebb6 0e02 	subs.w	lr, r6, r2
 80023a6:	eb75 0e03 	sbcs.w	lr, r5, r3
 80023aa:	bf22      	ittt	cs
 80023ac:	1ab6      	subcs	r6, r6, r2
 80023ae:	4675      	movcs	r5, lr
 80023b0:	ea40 009c 	orrcs.w	r0, r0, ip, lsr #2
 80023b4:	085b      	lsrs	r3, r3, #1
 80023b6:	ea4f 0232 	mov.w	r2, r2, rrx
 80023ba:	ebb6 0e02 	subs.w	lr, r6, r2
 80023be:	eb75 0e03 	sbcs.w	lr, r5, r3
 80023c2:	bf22      	ittt	cs
 80023c4:	1ab6      	subcs	r6, r6, r2
 80023c6:	4675      	movcs	r5, lr
 80023c8:	ea40 00dc 	orrcs.w	r0, r0, ip, lsr #3
 80023cc:	ea55 0e06 	orrs.w	lr, r5, r6
 80023d0:	d018      	beq.n	8002404 <__aeabi_ddiv+0x114>
 80023d2:	ea4f 1505 	mov.w	r5, r5, lsl #4
 80023d6:	ea45 7516 	orr.w	r5, r5, r6, lsr #28
 80023da:	ea4f 1606 	mov.w	r6, r6, lsl #4
 80023de:	ea4f 03c3 	mov.w	r3, r3, lsl #3
 80023e2:	ea43 7352 	orr.w	r3, r3, r2, lsr #29
 80023e6:	ea4f 02c2 	mov.w	r2, r2, lsl #3
 80023ea:	ea5f 1c1c 	movs.w	ip, ip, lsr #4
 80023ee:	d1c0      	bne.n	8002372 <__aeabi_ddiv+0x82>
 80023f0:	f411 1f80 	tst.w	r1, #1048576	; 0x100000
 80023f4:	d10b      	bne.n	800240e <__aeabi_ddiv+0x11e>
 80023f6:	ea41 0100 	orr.w	r1, r1, r0
 80023fa:	f04f 0000 	mov.w	r0, #0
 80023fe:	f04f 4c00 	mov.w	ip, #2147483648	; 0x80000000
 8002402:	e7b6      	b.n	8002372 <__aeabi_ddiv+0x82>
 8002404:	f411 1f80 	tst.w	r1, #1048576	; 0x100000
 8002408:	bf04      	itt	eq
 800240a:	4301      	orreq	r1, r0
 800240c:	2000      	moveq	r0, #0
 800240e:	f1b4 0cfd 	subs.w	ip, r4, #253	; 0xfd
 8002412:	bf88      	it	hi
 8002414:	f5bc 6fe0 	cmphi.w	ip, #1792	; 0x700
 8002418:	f63f aeaf 	bhi.w	800217a <__aeabi_dmul+0xde>
 800241c:	ebb5 0c03 	subs.w	ip, r5, r3
 8002420:	bf04      	itt	eq
 8002422:	ebb6 0c02 	subseq.w	ip, r6, r2
 8002426:	ea5f 0c50 	movseq.w	ip, r0, lsr #1
 800242a:	f150 0000 	adcs.w	r0, r0, #0
 800242e:	eb41 5104 	adc.w	r1, r1, r4, lsl #20
 8002432:	bd70      	pop	{r4, r5, r6, pc}
 8002434:	f00e 4e00 	and.w	lr, lr, #2147483648	; 0x80000000
 8002438:	ea4e 3111 	orr.w	r1, lr, r1, lsr #12
 800243c:	eb14 045c 	adds.w	r4, r4, ip, lsr #1
 8002440:	bfc2      	ittt	gt
 8002442:	ebd4 050c 	rsbsgt	r5, r4, ip
 8002446:	ea41 5104 	orrgt.w	r1, r1, r4, lsl #20
 800244a:	bd70      	popgt	{r4, r5, r6, pc}
 800244c:	f441 1180 	orr.w	r1, r1, #1048576	; 0x100000
 8002450:	f04f 0e00 	mov.w	lr, #0
 8002454:	3c01      	subs	r4, #1
 8002456:	e690      	b.n	800217a <__aeabi_dmul+0xde>
 8002458:	ea45 0e06 	orr.w	lr, r5, r6
 800245c:	e68d      	b.n	800217a <__aeabi_dmul+0xde>
 800245e:	ea0c 5513 	and.w	r5, ip, r3, lsr #20
 8002462:	ea94 0f0c 	teq	r4, ip
 8002466:	bf08      	it	eq
 8002468:	ea95 0f0c 	teqeq	r5, ip
 800246c:	f43f af3b 	beq.w	80022e6 <__aeabi_dmul+0x24a>
 8002470:	ea94 0f0c 	teq	r4, ip
 8002474:	d10a      	bne.n	800248c <__aeabi_ddiv+0x19c>
 8002476:	ea50 3401 	orrs.w	r4, r0, r1, lsl #12
 800247a:	f47f af34 	bne.w	80022e6 <__aeabi_dmul+0x24a>
 800247e:	ea95 0f0c 	teq	r5, ip
 8002482:	f47f af25 	bne.w	80022d0 <__aeabi_dmul+0x234>
 8002486:	4610      	mov	r0, r2
 8002488:	4619      	mov	r1, r3
 800248a:	e72c      	b.n	80022e6 <__aeabi_dmul+0x24a>
 800248c:	ea95 0f0c 	teq	r5, ip
 8002490:	d106      	bne.n	80024a0 <__aeabi_ddiv+0x1b0>
 8002492:	ea52 3503 	orrs.w	r5, r2, r3, lsl #12
 8002496:	f43f aefd 	beq.w	8002294 <__aeabi_dmul+0x1f8>
 800249a:	4610      	mov	r0, r2
 800249c:	4619      	mov	r1, r3
 800249e:	e722      	b.n	80022e6 <__aeabi_dmul+0x24a>
 80024a0:	ea50 0641 	orrs.w	r6, r0, r1, lsl #1
 80024a4:	bf18      	it	ne
 80024a6:	ea52 0643 	orrsne.w	r6, r2, r3, lsl #1
 80024aa:	f47f aec5 	bne.w	8002238 <__aeabi_dmul+0x19c>
 80024ae:	ea50 0441 	orrs.w	r4, r0, r1, lsl #1
 80024b2:	f47f af0d 	bne.w	80022d0 <__aeabi_dmul+0x234>
 80024b6:	ea52 0543 	orrs.w	r5, r2, r3, lsl #1
 80024ba:	f47f aeeb 	bne.w	8002294 <__aeabi_dmul+0x1f8>
 80024be:	e712      	b.n	80022e6 <__aeabi_dmul+0x24a>

080024c0 <__aeabi_d2f>:
 80024c0:	ea4f 0241 	mov.w	r2, r1, lsl #1
 80024c4:	f1b2 43e0 	subs.w	r3, r2, #1879048192	; 0x70000000
 80024c8:	bf24      	itt	cs
 80024ca:	f5b3 1c00 	subscs.w	ip, r3, #2097152	; 0x200000
 80024ce:	f1dc 5cfe 	rsbscs	ip, ip, #532676608	; 0x1fc00000
 80024d2:	d90d      	bls.n	80024f0 <__aeabi_d2f+0x30>
 80024d4:	f001 4c00 	and.w	ip, r1, #2147483648	; 0x80000000
 80024d8:	ea4f 02c0 	mov.w	r2, r0, lsl #3
 80024dc:	ea4c 7050 	orr.w	r0, ip, r0, lsr #29
 80024e0:	f1b2 4f00 	cmp.w	r2, #2147483648	; 0x80000000
 80024e4:	eb40 0083 	adc.w	r0, r0, r3, lsl #2
 80024e8:	bf08      	it	eq
 80024ea:	f020 0001 	biceq.w	r0, r0, #1
 80024ee:	4770      	bx	lr
 80024f0:	f011 4f80 	tst.w	r1, #1073741824	; 0x40000000
 80024f4:	d121      	bne.n	800253a <__aeabi_d2f+0x7a>
 80024f6:	f113 7238 	adds.w	r2, r3, #48234496	; 0x2e00000
 80024fa:	bfbc      	itt	lt
 80024fc:	f001 4000 	andlt.w	r0, r1, #2147483648	; 0x80000000
 8002500:	4770      	bxlt	lr
 8002502:	f441 1180 	orr.w	r1, r1, #1048576	; 0x100000
 8002506:	ea4f 5252 	mov.w	r2, r2, lsr #21
 800250a:	f1c2 0218 	rsb	r2, r2, #24
 800250e:	f1c2 0c20 	rsb	ip, r2, #32
 8002512:	fa10 f30c 	lsls.w	r3, r0, ip
 8002516:	fa20 f002 	lsr.w	r0, r0, r2
 800251a:	bf18      	it	ne
 800251c:	f040 0001 	orrne.w	r0, r0, #1
 8002520:	ea4f 23c1 	mov.w	r3, r1, lsl #11
 8002524:	ea4f 23d3 	mov.w	r3, r3, lsr #11
 8002528:	fa03 fc0c 	lsl.w	ip, r3, ip
 800252c:	ea40 000c 	orr.w	r0, r0, ip
 8002530:	fa23 f302 	lsr.w	r3, r3, r2
 8002534:	ea4f 0343 	mov.w	r3, r3, lsl #1
 8002538:	e7cc      	b.n	80024d4 <__aeabi_d2f+0x14>
 800253a:	ea7f 5362 	mvns.w	r3, r2, asr #21
 800253e:	d107      	bne.n	8002550 <__aeabi_d2f+0x90>
 8002540:	ea50 3301 	orrs.w	r3, r0, r1, lsl #12
 8002544:	bf1e      	ittt	ne
 8002546:	f04f 40fe 	movne.w	r0, #2130706432	; 0x7f000000
 800254a:	f440 0040 	orrne.w	r0, r0, #12582912	; 0xc00000
 800254e:	4770      	bxne	lr
 8002550:	f001 4000 	and.w	r0, r1, #2147483648	; 0x80000000
 8002554:	f040 40fe 	orr.w	r0, r0, #2130706432	; 0x7f000000
 8002558:	f440 0000 	orr.w	r0, r0, #8388608	; 0x800000
 800255c:	4770      	bx	lr
 800255e:	bf00      	nop

08002560 <__aeabi_frsub>:
 8002560:	f080 4000 	eor.w	r0, r0, #2147483648	; 0x80000000
 8002564:	e002      	b.n	800256c <__addsf3>
 8002566:	bf00      	nop

08002568 <__aeabi_fsub>:
 8002568:	f081 4100 	eor.w	r1, r1, #2147483648	; 0x80000000

0800256c <__addsf3>:
 800256c:	0042      	lsls	r2, r0, #1
 800256e:	bf1f      	itttt	ne
 8002570:	ea5f 0341 	movsne.w	r3, r1, lsl #1
 8002574:	ea92 0f03 	teqne	r2, r3
 8002578:	ea7f 6c22 	mvnsne.w	ip, r2, asr #24
 800257c:	ea7f 6c23 	mvnsne.w	ip, r3, asr #24
 8002580:	d06a      	beq.n	8002658 <__addsf3+0xec>
 8002582:	ea4f 6212 	mov.w	r2, r2, lsr #24
 8002586:	ebd2 6313 	rsbs	r3, r2, r3, lsr #24
 800258a:	bfc1      	itttt	gt
 800258c:	18d2      	addgt	r2, r2, r3
 800258e:	4041      	eorgt	r1, r0
 8002590:	4048      	eorgt	r0, r1
 8002592:	4041      	eorgt	r1, r0
 8002594:	bfb8      	it	lt
 8002596:	425b      	neglt	r3, r3
 8002598:	2b19      	cmp	r3, #25
 800259a:	bf88      	it	hi
 800259c:	4770      	bxhi	lr
 800259e:	f010 4f00 	tst.w	r0, #2147483648	; 0x80000000
 80025a2:	f440 0000 	orr.w	r0, r0, #8388608	; 0x800000
 80025a6:	f020 407f 	bic.w	r0, r0, #4278190080	; 0xff000000
 80025aa:	bf18      	it	ne
 80025ac:	4240      	negne	r0, r0
 80025ae:	f011 4f00 	tst.w	r1, #2147483648	; 0x80000000
 80025b2:	f441 0100 	orr.w	r1, r1, #8388608	; 0x800000
 80025b6:	f021 417f 	bic.w	r1, r1, #4278190080	; 0xff000000
 80025ba:	bf18      	it	ne
 80025bc:	4249      	negne	r1, r1
 80025be:	ea92 0f03 	teq	r2, r3
 80025c2:	d03f      	beq.n	8002644 <__addsf3+0xd8>
 80025c4:	f1a2 0201 	sub.w	r2, r2, #1
 80025c8:	fa41 fc03 	asr.w	ip, r1, r3
 80025cc:	eb10 000c 	adds.w	r0, r0, ip
 80025d0:	f1c3 0320 	rsb	r3, r3, #32
 80025d4:	fa01 f103 	lsl.w	r1, r1, r3
 80025d8:	f000 4300 	and.w	r3, r0, #2147483648	; 0x80000000
 80025dc:	d502      	bpl.n	80025e4 <__addsf3+0x78>
 80025de:	4249      	negs	r1, r1
 80025e0:	eb60 0040 	sbc.w	r0, r0, r0, lsl #1
 80025e4:	f5b0 0f00 	cmp.w	r0, #8388608	; 0x800000
 80025e8:	d313      	bcc.n	8002612 <__addsf3+0xa6>
 80025ea:	f1b0 7f80 	cmp.w	r0, #16777216	; 0x1000000
 80025ee:	d306      	bcc.n	80025fe <__addsf3+0x92>
 80025f0:	0840      	lsrs	r0, r0, #1
 80025f2:	ea4f 0131 	mov.w	r1, r1, rrx
 80025f6:	f102 0201 	add.w	r2, r2, #1
 80025fa:	2afe      	cmp	r2, #254	; 0xfe
 80025fc:	d251      	bcs.n	80026a2 <__addsf3+0x136>
 80025fe:	f1b1 4f00 	cmp.w	r1, #2147483648	; 0x80000000
 8002602:	eb40 50c2 	adc.w	r0, r0, r2, lsl #23
 8002606:	bf08      	it	eq
 8002608:	f020 0001 	biceq.w	r0, r0, #1
 800260c:	ea40 0003 	orr.w	r0, r0, r3
 8002610:	4770      	bx	lr
 8002612:	0049      	lsls	r1, r1, #1
 8002614:	eb40 0000 	adc.w	r0, r0, r0
 8002618:	f410 0f00 	tst.w	r0, #8388608	; 0x800000
 800261c:	f1a2 0201 	sub.w	r2, r2, #1
 8002620:	d1ed      	bne.n	80025fe <__addsf3+0x92>
 8002622:	fab0 fc80 	clz	ip, r0
 8002626:	f1ac 0c08 	sub.w	ip, ip, #8
 800262a:	ebb2 020c 	subs.w	r2, r2, ip
 800262e:	fa00 f00c 	lsl.w	r0, r0, ip
 8002632:	bfaa      	itet	ge
 8002634:	eb00 50c2 	addge.w	r0, r0, r2, lsl #23
 8002638:	4252      	neglt	r2, r2
 800263a:	4318      	orrge	r0, r3
 800263c:	bfbc      	itt	lt
 800263e:	40d0      	lsrlt	r0, r2
 8002640:	4318      	orrlt	r0, r3
 8002642:	4770      	bx	lr
 8002644:	f092 0f00 	teq	r2, #0
 8002648:	f481 0100 	eor.w	r1, r1, #8388608	; 0x800000
 800264c:	bf06      	itte	eq
 800264e:	f480 0000 	eoreq.w	r0, r0, #8388608	; 0x800000
 8002652:	3201      	addeq	r2, #1
 8002654:	3b01      	subne	r3, #1
 8002656:	e7b5      	b.n	80025c4 <__addsf3+0x58>
 8002658:	ea4f 0341 	mov.w	r3, r1, lsl #1
 800265c:	ea7f 6c22 	mvns.w	ip, r2, asr #24
 8002660:	bf18      	it	ne
 8002662:	ea7f 6c23 	mvnsne.w	ip, r3, asr #24
 8002666:	d021      	beq.n	80026ac <__addsf3+0x140>
 8002668:	ea92 0f03 	teq	r2, r3
 800266c:	d004      	beq.n	8002678 <__addsf3+0x10c>
 800266e:	f092 0f00 	teq	r2, #0
 8002672:	bf08      	it	eq
 8002674:	4608      	moveq	r0, r1
 8002676:	4770      	bx	lr
 8002678:	ea90 0f01 	teq	r0, r1
 800267c:	bf1c      	itt	ne
 800267e:	2000      	movne	r0, #0
 8002680:	4770      	bxne	lr
 8002682:	f012 4f7f 	tst.w	r2, #4278190080	; 0xff000000
 8002686:	d104      	bne.n	8002692 <__addsf3+0x126>
 8002688:	0040      	lsls	r0, r0, #1
 800268a:	bf28      	it	cs
 800268c:	f040 4000 	orrcs.w	r0, r0, #2147483648	; 0x80000000
 8002690:	4770      	bx	lr
 8002692:	f112 7200 	adds.w	r2, r2, #33554432	; 0x2000000
 8002696:	bf3c      	itt	cc
 8002698:	f500 0000 	addcc.w	r0, r0, #8388608	; 0x800000
 800269c:	4770      	bxcc	lr
 800269e:	f000 4300 	and.w	r3, r0, #2147483648	; 0x80000000
 80026a2:	f043 40fe 	orr.w	r0, r3, #2130706432	; 0x7f000000
 80026a6:	f440 0000 	orr.w	r0, r0, #8388608	; 0x800000
 80026aa:	4770      	bx	lr
 80026ac:	ea7f 6222 	mvns.w	r2, r2, asr #24
 80026b0:	bf16      	itet	ne
 80026b2:	4608      	movne	r0, r1
 80026b4:	ea7f 6323 	mvnseq.w	r3, r3, asr #24
 80026b8:	4601      	movne	r1, r0
 80026ba:	0242      	lsls	r2, r0, #9
 80026bc:	bf06      	itte	eq
 80026be:	ea5f 2341 	movseq.w	r3, r1, lsl #9
 80026c2:	ea90 0f01 	teqeq	r0, r1
 80026c6:	f440 0080 	orrne.w	r0, r0, #4194304	; 0x400000
 80026ca:	4770      	bx	lr

080026cc <__aeabi_ui2f>:
 80026cc:	f04f 0300 	mov.w	r3, #0
 80026d0:	e004      	b.n	80026dc <__aeabi_i2f+0x8>
 80026d2:	bf00      	nop

080026d4 <__aeabi_i2f>:
 80026d4:	f010 4300 	ands.w	r3, r0, #2147483648	; 0x80000000
 80026d8:	bf48      	it	mi
 80026da:	4240      	negmi	r0, r0
 80026dc:	ea5f 0c00 	movs.w	ip, r0
 80026e0:	bf08      	it	eq
 80026e2:	4770      	bxeq	lr
 80026e4:	f043 4396 	orr.w	r3, r3, #1258291200	; 0x4b000000
 80026e8:	4601      	mov	r1, r0
 80026ea:	f04f 0000 	mov.w	r0, #0
 80026ee:	e01c      	b.n	800272a <__aeabi_l2f+0x2a>

080026f0 <__aeabi_ul2f>:
 80026f0:	ea50 0201 	orrs.w	r2, r0, r1
 80026f4:	bf08      	it	eq
 80026f6:	4770      	bxeq	lr
 80026f8:	f04f 0300 	mov.w	r3, #0
 80026fc:	e00a      	b.n	8002714 <__aeabi_l2f+0x14>
 80026fe:	bf00      	nop

08002700 <__aeabi_l2f>:
 8002700:	ea50 0201 	orrs.w	r2, r0, r1
 8002704:	bf08      	it	eq
 8002706:	4770      	bxeq	lr
 8002708:	f011 4300 	ands.w	r3, r1, #2147483648	; 0x80000000
 800270c:	d502      	bpl.n	8002714 <__aeabi_l2f+0x14>
 800270e:	4240      	negs	r0, r0
 8002710:	eb61 0141 	sbc.w	r1, r1, r1, lsl #1
 8002714:	ea5f 0c01 	movs.w	ip, r1
 8002718:	bf02      	ittt	eq
 800271a:	4684      	moveq	ip, r0
 800271c:	4601      	moveq	r1, r0
 800271e:	2000      	moveq	r0, #0
 8002720:	f043 43b6 	orr.w	r3, r3, #1526726656	; 0x5b000000
 8002724:	bf08      	it	eq
 8002726:	f1a3 5380 	subeq.w	r3, r3, #268435456	; 0x10000000
 800272a:	f5a3 0300 	sub.w	r3, r3, #8388608	; 0x800000
 800272e:	fabc f28c 	clz	r2, ip
 8002732:	3a08      	subs	r2, #8
 8002734:	eba3 53c2 	sub.w	r3, r3, r2, lsl #23
 8002738:	db10      	blt.n	800275c <__aeabi_l2f+0x5c>
 800273a:	fa01 fc02 	lsl.w	ip, r1, r2
 800273e:	4463      	add	r3, ip
 8002740:	fa00 fc02 	lsl.w	ip, r0, r2
 8002744:	f1c2 0220 	rsb	r2, r2, #32
 8002748:	f1bc 4f00 	cmp.w	ip, #2147483648	; 0x80000000
 800274c:	fa20 f202 	lsr.w	r2, r0, r2
 8002750:	eb43 0002 	adc.w	r0, r3, r2
 8002754:	bf08      	it	eq
 8002756:	f020 0001 	biceq.w	r0, r0, #1
 800275a:	4770      	bx	lr
 800275c:	f102 0220 	add.w	r2, r2, #32
 8002760:	fa01 fc02 	lsl.w	ip, r1, r2
 8002764:	f1c2 0220 	rsb	r2, r2, #32
 8002768:	ea50 004c 	orrs.w	r0, r0, ip, lsl #1
 800276c:	fa21 f202 	lsr.w	r2, r1, r2
 8002770:	eb43 0002 	adc.w	r0, r3, r2
 8002774:	bf08      	it	eq
 8002776:	ea20 70dc 	biceq.w	r0, r0, ip, lsr #31
 800277a:	4770      	bx	lr

0800277c <__aeabi_fmul>:
 800277c:	f04f 0cff 	mov.w	ip, #255	; 0xff
 8002780:	ea1c 52d0 	ands.w	r2, ip, r0, lsr #23
 8002784:	bf1e      	ittt	ne
 8002786:	ea1c 53d1 	andsne.w	r3, ip, r1, lsr #23
 800278a:	ea92 0f0c 	teqne	r2, ip
 800278e:	ea93 0f0c 	teqne	r3, ip
 8002792:	d06f      	beq.n	8002874 <__aeabi_fmul+0xf8>
 8002794:	441a      	add	r2, r3
 8002796:	ea80 0c01 	eor.w	ip, r0, r1
 800279a:	0240      	lsls	r0, r0, #9
 800279c:	bf18      	it	ne
 800279e:	ea5f 2141 	movsne.w	r1, r1, lsl #9
 80027a2:	d01e      	beq.n	80027e2 <__aeabi_fmul+0x66>
 80027a4:	f04f 6300 	mov.w	r3, #134217728	; 0x8000000
 80027a8:	ea43 1050 	orr.w	r0, r3, r0, lsr #5
 80027ac:	ea43 1151 	orr.w	r1, r3, r1, lsr #5
 80027b0:	fba0 3101 	umull	r3, r1, r0, r1
 80027b4:	f00c 4000 	and.w	r0, ip, #2147483648	; 0x80000000
 80027b8:	f5b1 0f00 	cmp.w	r1, #8388608	; 0x800000
 80027bc:	bf3e      	ittt	cc
 80027be:	0049      	lslcc	r1, r1, #1
 80027c0:	ea41 71d3 	orrcc.w	r1, r1, r3, lsr #31
 80027c4:	005b      	lslcc	r3, r3, #1
 80027c6:	ea40 0001 	orr.w	r0, r0, r1
 80027ca:	f162 027f 	sbc.w	r2, r2, #127	; 0x7f
 80027ce:	2afd      	cmp	r2, #253	; 0xfd
 80027d0:	d81d      	bhi.n	800280e <__aeabi_fmul+0x92>
 80027d2:	f1b3 4f00 	cmp.w	r3, #2147483648	; 0x80000000
 80027d6:	eb40 50c2 	adc.w	r0, r0, r2, lsl #23
 80027da:	bf08      	it	eq
 80027dc:	f020 0001 	biceq.w	r0, r0, #1
 80027e0:	4770      	bx	lr
 80027e2:	f090 0f00 	teq	r0, #0
 80027e6:	f00c 4c00 	and.w	ip, ip, #2147483648	; 0x80000000
 80027ea:	bf08      	it	eq
 80027ec:	0249      	lsleq	r1, r1, #9
 80027ee:	ea4c 2050 	orr.w	r0, ip, r0, lsr #9
 80027f2:	ea40 2051 	orr.w	r0, r0, r1, lsr #9
 80027f6:	3a7f      	subs	r2, #127	; 0x7f
 80027f8:	bfc2      	ittt	gt
 80027fa:	f1d2 03ff 	rsbsgt	r3, r2, #255	; 0xff
 80027fe:	ea40 50c2 	orrgt.w	r0, r0, r2, lsl #23
 8002802:	4770      	bxgt	lr
 8002804:	f440 0000 	orr.w	r0, r0, #8388608	; 0x800000
 8002808:	f04f 0300 	mov.w	r3, #0
 800280c:	3a01      	subs	r2, #1
 800280e:	dc5d      	bgt.n	80028cc <__aeabi_fmul+0x150>
 8002810:	f112 0f19 	cmn.w	r2, #25
 8002814:	bfdc      	itt	le
 8002816:	f000 4000 	andle.w	r0, r0, #2147483648	; 0x80000000
 800281a:	4770      	bxle	lr
 800281c:	f1c2 0200 	rsb	r2, r2, #0
 8002820:	0041      	lsls	r1, r0, #1
 8002822:	fa21 f102 	lsr.w	r1, r1, r2
 8002826:	f1c2 0220 	rsb	r2, r2, #32
 800282a:	fa00 fc02 	lsl.w	ip, r0, r2
 800282e:	ea5f 0031 	movs.w	r0, r1, rrx
 8002832:	f140 0000 	adc.w	r0, r0, #0
 8002836:	ea53 034c 	orrs.w	r3, r3, ip, lsl #1
 800283a:	bf08      	it	eq
 800283c:	ea20 70dc 	biceq.w	r0, r0, ip, lsr #31
 8002840:	4770      	bx	lr
 8002842:	f092 0f00 	teq	r2, #0
 8002846:	f000 4c00 	and.w	ip, r0, #2147483648	; 0x80000000
 800284a:	bf02      	ittt	eq
 800284c:	0040      	lsleq	r0, r0, #1
 800284e:	f410 0f00 	tsteq.w	r0, #8388608	; 0x800000
 8002852:	3a01      	subeq	r2, #1
 8002854:	d0f9      	beq.n	800284a <__aeabi_fmul+0xce>
 8002856:	ea40 000c 	orr.w	r0, r0, ip
 800285a:	f093 0f00 	teq	r3, #0
 800285e:	f001 4c00 	and.w	ip, r1, #2147483648	; 0x80000000
 8002862:	bf02      	ittt	eq
 8002864:	0049      	lsleq	r1, r1, #1
 8002866:	f411 0f00 	tsteq.w	r1, #8388608	; 0x800000
 800286a:	3b01      	subeq	r3, #1
 800286c:	d0f9      	beq.n	8002862 <__aeabi_fmul+0xe6>
 800286e:	ea41 010c 	orr.w	r1, r1, ip
 8002872:	e78f      	b.n	8002794 <__aeabi_fmul+0x18>
 8002874:	ea0c 53d1 	and.w	r3, ip, r1, lsr #23
 8002878:	ea92 0f0c 	teq	r2, ip
 800287c:	bf18      	it	ne
 800287e:	ea93 0f0c 	teqne	r3, ip
 8002882:	d00a      	beq.n	800289a <__aeabi_fmul+0x11e>
 8002884:	f030 4c00 	bics.w	ip, r0, #2147483648	; 0x80000000
 8002888:	bf18      	it	ne
 800288a:	f031 4c00 	bicsne.w	ip, r1, #2147483648	; 0x80000000
 800288e:	d1d8      	bne.n	8002842 <__aeabi_fmul+0xc6>
 8002890:	ea80 0001 	eor.w	r0, r0, r1
 8002894:	f000 4000 	and.w	r0, r0, #2147483648	; 0x80000000
 8002898:	4770      	bx	lr
 800289a:	f090 0f00 	teq	r0, #0
 800289e:	bf17      	itett	ne
 80028a0:	f090 4f00 	teqne	r0, #2147483648	; 0x80000000
 80028a4:	4608      	moveq	r0, r1
 80028a6:	f091 0f00 	teqne	r1, #0
 80028aa:	f091 4f00 	teqne	r1, #2147483648	; 0x80000000
 80028ae:	d014      	beq.n	80028da <__aeabi_fmul+0x15e>
 80028b0:	ea92 0f0c 	teq	r2, ip
 80028b4:	d101      	bne.n	80028ba <__aeabi_fmul+0x13e>
 80028b6:	0242      	lsls	r2, r0, #9
 80028b8:	d10f      	bne.n	80028da <__aeabi_fmul+0x15e>
 80028ba:	ea93 0f0c 	teq	r3, ip
 80028be:	d103      	bne.n	80028c8 <__aeabi_fmul+0x14c>
 80028c0:	024b      	lsls	r3, r1, #9
 80028c2:	bf18      	it	ne
 80028c4:	4608      	movne	r0, r1
 80028c6:	d108      	bne.n	80028da <__aeabi_fmul+0x15e>
 80028c8:	ea80 0001 	eor.w	r0, r0, r1
 80028cc:	f000 4000 	and.w	r0, r0, #2147483648	; 0x80000000
 80028d0:	f040 40fe 	orr.w	r0, r0, #2130706432	; 0x7f000000
 80028d4:	f440 0000 	orr.w	r0, r0, #8388608	; 0x800000
 80028d8:	4770      	bx	lr
 80028da:	f040 40fe 	orr.w	r0, r0, #2130706432	; 0x7f000000
 80028de:	f440 0040 	orr.w	r0, r0, #12582912	; 0xc00000
 80028e2:	4770      	bx	lr

080028e4 <__aeabi_fdiv>:
 80028e4:	f04f 0cff 	mov.w	ip, #255	; 0xff
 80028e8:	ea1c 52d0 	ands.w	r2, ip, r0, lsr #23
 80028ec:	bf1e      	ittt	ne
 80028ee:	ea1c 53d1 	andsne.w	r3, ip, r1, lsr #23
 80028f2:	ea92 0f0c 	teqne	r2, ip
 80028f6:	ea93 0f0c 	teqne	r3, ip
 80028fa:	d069      	beq.n	80029d0 <__aeabi_fdiv+0xec>
 80028fc:	eba2 0203 	sub.w	r2, r2, r3
 8002900:	ea80 0c01 	eor.w	ip, r0, r1
 8002904:	0249      	lsls	r1, r1, #9
 8002906:	ea4f 2040 	mov.w	r0, r0, lsl #9
 800290a:	d037      	beq.n	800297c <__aeabi_fdiv+0x98>
 800290c:	f04f 5380 	mov.w	r3, #268435456	; 0x10000000
 8002910:	ea43 1111 	orr.w	r1, r3, r1, lsr #4
 8002914:	ea43 1310 	orr.w	r3, r3, r0, lsr #4
 8002918:	f00c 4000 	and.w	r0, ip, #2147483648	; 0x80000000
 800291c:	428b      	cmp	r3, r1
 800291e:	bf38      	it	cc
 8002920:	005b      	lslcc	r3, r3, #1
 8002922:	f142 027d 	adc.w	r2, r2, #125	; 0x7d
 8002926:	f44f 0c00 	mov.w	ip, #8388608	; 0x800000
 800292a:	428b      	cmp	r3, r1
 800292c:	bf24      	itt	cs
 800292e:	1a5b      	subcs	r3, r3, r1
 8002930:	ea40 000c 	orrcs.w	r0, r0, ip
 8002934:	ebb3 0f51 	cmp.w	r3, r1, lsr #1
 8002938:	bf24      	itt	cs
 800293a:	eba3 0351 	subcs.w	r3, r3, r1, lsr #1
 800293e:	ea40 005c 	orrcs.w	r0, r0, ip, lsr #1
 8002942:	ebb3 0f91 	cmp.w	r3, r1, lsr #2
 8002946:	bf24      	itt	cs
 8002948:	eba3 0391 	subcs.w	r3, r3, r1, lsr #2
 800294c:	ea40 009c 	orrcs.w	r0, r0, ip, lsr #2
 8002950:	ebb3 0fd1 	cmp.w	r3, r1, lsr #3
 8002954:	bf24      	itt	cs
 8002956:	eba3 03d1 	subcs.w	r3, r3, r1, lsr #3
 800295a:	ea40 00dc 	orrcs.w	r0, r0, ip, lsr #3
 800295e:	011b      	lsls	r3, r3, #4
 8002960:	bf18      	it	ne
 8002962:	ea5f 1c1c 	movsne.w	ip, ip, lsr #4
 8002966:	d1e0      	bne.n	800292a <__aeabi_fdiv+0x46>
 8002968:	2afd      	cmp	r2, #253	; 0xfd
 800296a:	f63f af50 	bhi.w	800280e <__aeabi_fmul+0x92>
 800296e:	428b      	cmp	r3, r1
 8002970:	eb40 50c2 	adc.w	r0, r0, r2, lsl #23
 8002974:	bf08      	it	eq
 8002976:	f020 0001 	biceq.w	r0, r0, #1
 800297a:	4770      	bx	lr
 800297c:	f00c 4c00 	and.w	ip, ip, #2147483648	; 0x80000000
 8002980:	ea4c 2050 	orr.w	r0, ip, r0, lsr #9
 8002984:	327f      	adds	r2, #127	; 0x7f
 8002986:	bfc2      	ittt	gt
 8002988:	f1d2 03ff 	rsbsgt	r3, r2, #255	; 0xff
 800298c:	ea40 50c2 	orrgt.w	r0, r0, r2, lsl #23
 8002990:	4770      	bxgt	lr
 8002992:	f440 0000 	orr.w	r0, r0, #8388608	; 0x800000
 8002996:	f04f 0300 	mov.w	r3, #0
 800299a:	3a01      	subs	r2, #1
 800299c:	e737      	b.n	800280e <__aeabi_fmul+0x92>
 800299e:	f092 0f00 	teq	r2, #0
 80029a2:	f000 4c00 	and.w	ip, r0, #2147483648	; 0x80000000
 80029a6:	bf02      	ittt	eq
 80029a8:	0040      	lsleq	r0, r0, #1
 80029aa:	f410 0f00 	tsteq.w	r0, #8388608	; 0x800000
 80029ae:	3a01      	subeq	r2, #1
 80029b0:	d0f9      	beq.n	80029a6 <__aeabi_fdiv+0xc2>
 80029b2:	ea40 000c 	orr.w	r0, r0, ip
 80029b6:	f093 0f00 	teq	r3, #0
 80029ba:	f001 4c00 	and.w	ip, r1, #2147483648	; 0x80000000
 80029be:	bf02      	ittt	eq
 80029c0:	0049      	lsleq	r1, r1, #1
 80029c2:	f411 0f00 	tsteq.w	r1, #8388608	; 0x800000
 80029c6:	3b01      	subeq	r3, #1
 80029c8:	d0f9      	beq.n	80029be <__aeabi_fdiv+0xda>
 80029ca:	ea41 010c 	orr.w	r1, r1, ip
 80029ce:	e795      	b.n	80028fc <__aeabi_fdiv+0x18>
 80029d0:	ea0c 53d1 	and.w	r3, ip, r1, lsr #23
 80029d4:	ea92 0f0c 	teq	r2, ip
 80029d8:	d108      	bne.n	80029ec <__aeabi_fdiv+0x108>
 80029da:	0242      	lsls	r2, r0, #9
 80029dc:	f47f af7d 	bne.w	80028da <__aeabi_fmul+0x15e>
 80029e0:	ea93 0f0c 	teq	r3, ip
 80029e4:	f47f af70 	bne.w	80028c8 <__aeabi_fmul+0x14c>
 80029e8:	4608      	mov	r0, r1
 80029ea:	e776      	b.n	80028da <__aeabi_fmul+0x15e>
 80029ec:	ea93 0f0c 	teq	r3, ip
 80029f0:	d104      	bne.n	80029fc <__aeabi_fdiv+0x118>
 80029f2:	024b      	lsls	r3, r1, #9
 80029f4:	f43f af4c 	beq.w	8002890 <__aeabi_fmul+0x114>
 80029f8:	4608      	mov	r0, r1
 80029fa:	e76e      	b.n	80028da <__aeabi_fmul+0x15e>
 80029fc:	f030 4c00 	bics.w	ip, r0, #2147483648	; 0x80000000
 8002a00:	bf18      	it	ne
 8002a02:	f031 4c00 	bicsne.w	ip, r1, #2147483648	; 0x80000000
 8002a06:	d1ca      	bne.n	800299e <__aeabi_fdiv+0xba>
 8002a08:	f030 4200 	bics.w	r2, r0, #2147483648	; 0x80000000
 8002a0c:	f47f af5c 	bne.w	80028c8 <__aeabi_fmul+0x14c>
 8002a10:	f031 4300 	bics.w	r3, r1, #2147483648	; 0x80000000
 8002a14:	f47f af3c 	bne.w	8002890 <__aeabi_fmul+0x114>
 8002a18:	e75f      	b.n	80028da <__aeabi_fmul+0x15e>
 8002a1a:	bf00      	nop

08002a1c <__gesf2>:
 8002a1c:	f04f 3cff 	mov.w	ip, #4294967295
 8002a20:	e006      	b.n	8002a30 <__cmpsf2+0x4>
 8002a22:	bf00      	nop

08002a24 <__lesf2>:
 8002a24:	f04f 0c01 	mov.w	ip, #1
 8002a28:	e002      	b.n	8002a30 <__cmpsf2+0x4>
 8002a2a:	bf00      	nop

08002a2c <__cmpsf2>:
 8002a2c:	f04f 0c01 	mov.w	ip, #1
 8002a30:	f84d cd04 	str.w	ip, [sp, #-4]!
 8002a34:	ea4f 0240 	mov.w	r2, r0, lsl #1
 8002a38:	ea4f 0341 	mov.w	r3, r1, lsl #1
 8002a3c:	ea7f 6c22 	mvns.w	ip, r2, asr #24
 8002a40:	bf18      	it	ne
 8002a42:	ea7f 6c23 	mvnsne.w	ip, r3, asr #24
 8002a46:	d011      	beq.n	8002a6c <__cmpsf2+0x40>
 8002a48:	b001      	add	sp, #4
 8002a4a:	ea52 0c53 	orrs.w	ip, r2, r3, lsr #1
 8002a4e:	bf18      	it	ne
 8002a50:	ea90 0f01 	teqne	r0, r1
 8002a54:	bf58      	it	pl
 8002a56:	ebb2 0003 	subspl.w	r0, r2, r3
 8002a5a:	bf88      	it	hi
 8002a5c:	17c8      	asrhi	r0, r1, #31
 8002a5e:	bf38      	it	cc
 8002a60:	ea6f 70e1 	mvncc.w	r0, r1, asr #31
 8002a64:	bf18      	it	ne
 8002a66:	f040 0001 	orrne.w	r0, r0, #1
 8002a6a:	4770      	bx	lr
 8002a6c:	ea7f 6c22 	mvns.w	ip, r2, asr #24
 8002a70:	d102      	bne.n	8002a78 <__cmpsf2+0x4c>
 8002a72:	ea5f 2c40 	movs.w	ip, r0, lsl #9
 8002a76:	d105      	bne.n	8002a84 <__cmpsf2+0x58>
 8002a78:	ea7f 6c23 	mvns.w	ip, r3, asr #24
 8002a7c:	d1e4      	bne.n	8002a48 <__cmpsf2+0x1c>
 8002a7e:	ea5f 2c41 	movs.w	ip, r1, lsl #9
 8002a82:	d0e1      	beq.n	8002a48 <__cmpsf2+0x1c>
 8002a84:	f85d 0b04 	ldr.w	r0, [sp], #4
 8002a88:	4770      	bx	lr
 8002a8a:	bf00      	nop

08002a8c <__aeabi_cfrcmple>:
 8002a8c:	4684      	mov	ip, r0
 8002a8e:	4608      	mov	r0, r1
 8002a90:	4661      	mov	r1, ip
 8002a92:	e7ff      	b.n	8002a94 <__aeabi_cfcmpeq>

08002a94 <__aeabi_cfcmpeq>:
 8002a94:	b50f      	push	{r0, r1, r2, r3, lr}
 8002a96:	f7ff ffc9 	bl	8002a2c <__cmpsf2>
 8002a9a:	2800      	cmp	r0, #0
 8002a9c:	bf48      	it	mi
 8002a9e:	f110 0f00 	cmnmi.w	r0, #0
 8002aa2:	bd0f      	pop	{r0, r1, r2, r3, pc}

08002aa4 <__aeabi_fcmpeq>:
 8002aa4:	f84d ed08 	str.w	lr, [sp, #-8]!
 8002aa8:	f7ff fff4 	bl	8002a94 <__aeabi_cfcmpeq>
 8002aac:	bf0c      	ite	eq
 8002aae:	2001      	moveq	r0, #1
 8002ab0:	2000      	movne	r0, #0
 8002ab2:	f85d fb08 	ldr.w	pc, [sp], #8
 8002ab6:	bf00      	nop

08002ab8 <__aeabi_fcmplt>:
 8002ab8:	f84d ed08 	str.w	lr, [sp, #-8]!
 8002abc:	f7ff ffea 	bl	8002a94 <__aeabi_cfcmpeq>
 8002ac0:	bf34      	ite	cc
 8002ac2:	2001      	movcc	r0, #1
 8002ac4:	2000      	movcs	r0, #0
 8002ac6:	f85d fb08 	ldr.w	pc, [sp], #8
 8002aca:	bf00      	nop

08002acc <__aeabi_fcmple>:
 8002acc:	f84d ed08 	str.w	lr, [sp, #-8]!
 8002ad0:	f7ff ffe0 	bl	8002a94 <__aeabi_cfcmpeq>
 8002ad4:	bf94      	ite	ls
 8002ad6:	2001      	movls	r0, #1
 8002ad8:	2000      	movhi	r0, #0
 8002ada:	f85d fb08 	ldr.w	pc, [sp], #8
 8002ade:	bf00      	nop

08002ae0 <__aeabi_fcmpge>:
 8002ae0:	f84d ed08 	str.w	lr, [sp, #-8]!
 8002ae4:	f7ff ffd2 	bl	8002a8c <__aeabi_cfrcmple>
 8002ae8:	bf94      	ite	ls
 8002aea:	2001      	movls	r0, #1
 8002aec:	2000      	movhi	r0, #0
 8002aee:	f85d fb08 	ldr.w	pc, [sp], #8
 8002af2:	bf00      	nop

08002af4 <__aeabi_fcmpgt>:
 8002af4:	f84d ed08 	str.w	lr, [sp, #-8]!
 8002af8:	f7ff ffc8 	bl	8002a8c <__aeabi_cfrcmple>
 8002afc:	bf34      	ite	cc
 8002afe:	2001      	movcc	r0, #1
 8002b00:	2000      	movcs	r0, #0
 8002b02:	f85d fb08 	ldr.w	pc, [sp], #8
 8002b06:	bf00      	nop

08002b08 <__errno>:
 8002b08:	f240 032c 	movw	r3, #44	; 0x2c
 8002b0c:	f2c2 0300 	movt	r3, #8192	; 0x2000
 8002b10:	6818      	ldr	r0, [r3, #0]
 8002b12:	4770      	bx	lr

08002b14 <Reset_Handler>:
 8002b14:	2100      	movs	r1, #0
 8002b16:	e003      	b.n	8002b20 <LoopCopyDataInit>

08002b18 <CopyDataInit>:
 8002b18:	4b0a      	ldr	r3, [pc, #40]	; (8002b44 <LoopFillZerobss+0x10>)
 8002b1a:	585b      	ldr	r3, [r3, r1]
 8002b1c:	5043      	str	r3, [r0, r1]
 8002b1e:	3104      	adds	r1, #4

08002b20 <LoopCopyDataInit>:
 8002b20:	4809      	ldr	r0, [pc, #36]	; (8002b48 <LoopFillZerobss+0x14>)
 8002b22:	4b0a      	ldr	r3, [pc, #40]	; (8002b4c <LoopFillZerobss+0x18>)
 8002b24:	1842      	adds	r2, r0, r1
 8002b26:	429a      	cmp	r2, r3
 8002b28:	d3f6      	bcc.n	8002b18 <CopyDataInit>
 8002b2a:	4a09      	ldr	r2, [pc, #36]	; (8002b50 <LoopFillZerobss+0x1c>)
 8002b2c:	e002      	b.n	8002b34 <LoopFillZerobss>

08002b2e <FillZerobss>:
 8002b2e:	2300      	movs	r3, #0
 8002b30:	f842 3b04 	str.w	r3, [r2], #4

08002b34 <LoopFillZerobss>:
 8002b34:	4b07      	ldr	r3, [pc, #28]	; (8002b54 <LoopFillZerobss+0x20>)
 8002b36:	429a      	cmp	r2, r3
 8002b38:	d3f9      	bcc.n	8002b2e <FillZerobss>
 8002b3a:	f7fd fb9f 	bl	800027c <SystemInit>
 8002b3e:	f7fd fb3b 	bl	80001b8 <main>
 8002b42:	4770      	bx	lr
 8002b44:	08002b8c 	stmdaeq	r0, {r2, r3, r7, r8, r9, fp, sp}
 8002b48:	20000000 	andcs	r0, r0, r0
 8002b4c:	20000120 	andcs	r0, r0, r0, lsr #2
 8002b50:	20000124 	andcs	r0, r0, r4, lsr #2
 8002b54:	20000130 	andcs	r0, r0, r0, lsr r1

08002b58 <ADC_IRQHandler>:
 8002b58:	e7fe      	b.n	8002b58 <ADC_IRQHandler>
	...

08002b5c <_global_impure_ptr>:
 8002b5c:	20000030 	andcs	r0, r0, r0, lsr r0
 8002b60:	74727173 	ldrbtvc	r7, [r2], #-371	; 0xfffffe8d
 8002b64:	00000066 	andeq	r0, r0, r6, rrx
 8002b68:	00000043 	andeq	r0, r0, r3, asr #32

08002b6c <_init>:
 8002b6c:	b5f8      	push	{r3, r4, r5, r6, r7, lr}
 8002b6e:	bf00      	nop
 8002b70:	bcf8      	pop	{r3, r4, r5, r6, r7}
 8002b72:	bc08      	pop	{r3}
 8002b74:	469e      	mov	lr, r3
 8002b76:	4770      	bx	lr

08002b78 <_fini>:
 8002b78:	b5f8      	push	{r3, r4, r5, r6, r7, lr}
 8002b7a:	bf00      	nop
 8002b7c:	bcf8      	pop	{r3, r4, r5, r6, r7}
 8002b7e:	bc08      	pop	{r3}
 8002b80:	469e      	mov	lr, r3
 8002b82:	4770      	bx	lr

Disassembly of section .init_array:

08002b84 <__exidx_end>:
 8002b84:	0800019d 	stmdaeq	r0, {r0, r2, r3, r4, r7, r8}

Disassembly of section .fini_array:

08002b88 <__do_global_dtors_aux_fini_array_entry>:
 8002b88:	08000189 	stmdaeq	r0, {r0, r3, r7, r8}

Disassembly of section .data:

20000000 <__dso_handle>:
20000000:	00000000 	andeq	r0, r0, r0

20000004 <AHBPrescTable>:
	...
2000000c:	04030201 	streq	r0, [r3], #-513	; 0xfffffdff
20000010:	09080706 	stmdbeq	r8, {r1, r2, r8, r9, sl}

20000014 <SystemCoreClock>:
20000014:	0a037a00 	beq	200de81c <_estack+0xbe81c>

20000018 <APBAHBPrescTable>:
20000018:	00000000 	andeq	r0, r0, r0
2000001c:	04030201 	streq	r0, [r3], #-513	; 0xfffffdff
20000020:	04030201 	streq	r0, [r3], #-513	; 0xfffffdff
20000024:	09080706 	stmdbeq	r8, {r1, r2, r8, r9, sl}

20000028 <__fdlib_version>:
20000028:	00000001 	andeq	r0, r0, r1

2000002c <_impure_ptr>:
2000002c:	20000030 	andcs	r0, r0, r0, lsr r0

20000030 <impure_data>:
	...
20000050:	08002b68 	stmdaeq	r0, {r3, r5, r6, r8, r9, fp, sp}
	...

Disassembly of section .jcr:

20000120 <__JCR_END__>:
20000120:	00000000 	andeq	r0, r0, r0

Disassembly of section .bss:

20000124 <__bss_start__>:
20000124:	00000000 	andeq	r0, r0, r0

20000128 <GPIO_InitStructure>:
	...

Disassembly of section ._user_heap_stack:

20000130 <._user_heap_stack>:
	...

Disassembly of section .ARM.attributes:

00000000 <.ARM.attributes>:
   0:	00003041 	andeq	r3, r0, r1, asr #32
   4:	61656100 	cmnvs	r5, r0, lsl #2
   8:	01006962 	tsteq	r0, r2, ror #18
   c:	00000026 	andeq	r0, r0, r6, lsr #32
  10:	726f4305 	rsbvc	r4, pc, #335544320	; 0x14000000
  14:	2d786574 	cfldr64cs	mvdx6, [r8, #-464]!	; 0xfffffe30
  18:	0600344d 	streq	r3, [r0], -sp, asr #8
  1c:	094d070d 	stmdbeq	sp, {r0, r2, r3, r8, r9, sl}^
  20:	12020a02 	andne	r0, r2, #8192	; 0x2000
  24:	15011404 	strne	r1, [r1, #-1028]	; 0xfffffbfc
  28:	18031701 	stmdane	r3, {r0, r8, r9, sl, ip}
  2c:	1b011a01 	blne	46838 <_Min_Stack_Size+0x46438>
  30:	Address 0x00000030 is out of bounds.


Disassembly of section .debug_abbrev:

00000000 <.debug_abbrev>:
   0:	25011101 	strcs	r1, [r1, #-257]	; 0xfffffeff
   4:	030b130e 	movweq	r1, #45838	; 0xb30e
   8:	110e1b0e 	tstne	lr, lr, lsl #22
   c:	10011201 	andne	r1, r1, r1, lsl #4
  10:	02000006 	andeq	r0, r0, #6
  14:	0b0b0024 	bleq	2c00ac <_Min_Stack_Size+0x2bfcac>
  18:	0e030b3e 	vmoveq.16	d3[0], r0
  1c:	16030000 	strne	r0, [r3], -r0
  20:	3a0e0300 	bcc	380c28 <_Min_Stack_Size+0x380828>
  24:	490b3b0b 	stmdbmi	fp, {r0, r1, r3, r8, r9, fp, ip, sp}
  28:	04000013 	streq	r0, [r0], #-19	; 0xffffffed
  2c:	0b0b0024 	bleq	2c00c4 <_Min_Stack_Size+0x2bfcc4>
  30:	08030b3e 	stmdaeq	r3, {r1, r2, r3, r4, r5, r8, r9, fp}
  34:	35050000 	strcc	r0, [r5, #-0]
  38:	00134900 	andseq	r4, r3, r0, lsl #18
  3c:	01010600 	tsteq	r1, r0, lsl #12
  40:	13011349 	movwne	r1, #4937	; 0x1349
  44:	21070000 	mrscs	r0, (UNDEF: 7)
  48:	2f134900 	svccs	0x00134900
  4c:	0800000b 	stmdaeq	r0, {r0, r1, r3}
  50:	0b0b0104 	bleq	2c0468 <_Min_Stack_Size+0x2c0068>
  54:	053b0b3a 	ldreq	r0, [fp, #-2874]!	; 0xfffff4c6
  58:	00001301 	andeq	r1, r0, r1, lsl #6
  5c:	03002809 	movweq	r2, #2057	; 0x809
  60:	000d1c0e 	andeq	r1, sp, lr, lsl #24
  64:	01130a00 	tsteq	r3, r0, lsl #20
  68:	0b3a0b0b 	bleq	e82c9c <_Min_Stack_Size+0xe8289c>
  6c:	1301053b 	movwne	r0, #5435	; 0x153b
  70:	0d0b0000 	stceq	0, cr0, [fp, #-0]
  74:	3a0e0300 	bcc	380c7c <_Min_Stack_Size+0x38087c>
  78:	49053b0b 	stmdbmi	r5, {r0, r1, r3, r8, r9, fp, ip, sp}
  7c:	000a3813 	andeq	r3, sl, r3, lsl r8
  80:	000d0c00 	andeq	r0, sp, r0, lsl #24
  84:	0b3a0803 	bleq	e82098 <_Min_Stack_Size+0xe81c98>
  88:	1349053b 	movtne	r0, #38203	; 0x953b
  8c:	00000a38 	andeq	r0, r0, r8, lsr sl
  90:	0300160d 	movweq	r1, #1549	; 0x60d
  94:	3b0b3a0e 	blcc	2ce8d4 <_Min_Stack_Size+0x2ce4d4>
  98:	00134905 	andseq	r4, r3, r5, lsl #18
  9c:	01040e00 	tsteq	r4, r0, lsl #28
  a0:	0b3a0b0b 	bleq	e82cd4 <_Min_Stack_Size+0xe828d4>
  a4:	13010b3b 	movwne	r0, #6971	; 0x1b3b
  a8:	130f0000 	movwne	r0, #61440	; 0xf000
  ac:	3a0b0b01 	bcc	2c2cb8 <_Min_Stack_Size+0x2c28b8>
  b0:	010b3b0b 	tsteq	fp, fp, lsl #22
  b4:	10000013 	andne	r0, r0, r3, lsl r0
  b8:	0e03000d 	cdpeq	0, 0, cr0, cr3, cr13, {0}
  bc:	0b3b0b3a 	bleq	ec2dac <_Min_Stack_Size+0xec29ac>
  c0:	0a381349 	beq	e04dec <_Min_Stack_Size+0xe049ec>
  c4:	2e110000 	cdpcs	0, 1, cr0, cr1, cr0, {0}
  c8:	030c3f01 	movweq	r3, #52993	; 0xcf01
  cc:	3b0b3a0e 	blcc	2ce90c <_Min_Stack_Size+0x2ce50c>
  d0:	200c270b 	andcs	r2, ip, fp, lsl #14
  d4:	0013010b 	andseq	r0, r3, fp, lsl #2
  d8:	00051200 	andeq	r1, r5, r0, lsl #4
  dc:	0b3a0e03 	bleq	e838f0 <_Min_Stack_Size+0xe834f0>
  e0:	13490b3b 	movtne	r0, #39739	; 0x9b3b
  e4:	2e130000 	cdpcs	0, 1, cr0, cr3, cr0, {0}
  e8:	030c3f01 	movweq	r3, #52993	; 0xcf01
  ec:	3b0b3a0e 	blcc	2ce92c <_Min_Stack_Size+0x2ce52c>
  f0:	490c270b 	stmdbmi	ip, {r0, r1, r3, r8, r9, sl, sp}
  f4:	010b2013 	tsteq	fp, r3, lsl r0
  f8:	14000013 	strne	r0, [r0], #-19	; 0xffffffed
  fc:	08030005 	stmdaeq	r3, {r0, r2}
 100:	0b3b0b3a 	bleq	ec2df0 <_Min_Stack_Size+0xec29f0>
 104:	00001349 	andeq	r1, r0, r9, asr #6
 108:	3f012e15 	svccc	0x00012e15
 10c:	3a0e030c 	bcc	380d44 <_Min_Stack_Size+0x380944>
 110:	270b3b0b 	strcs	r3, [fp, -fp, lsl #22]
 114:	1113490c 	tstne	r3, ip, lsl #18
 118:	40011201 	andmi	r1, r1, r1, lsl #4
 11c:	00130106 	andseq	r0, r3, r6, lsl #2
 120:	010b1600 	tsteq	fp, r0, lsl #12
 124:	01120111 	tsteq	r2, r1, lsl r1
 128:	34170000 	ldrcc	r0, [r7], #-0
 12c:	3a080300 	bcc	200d34 <_Min_Stack_Size+0x200934>
 130:	490b3b0b 	stmdbmi	fp, {r0, r1, r3, r8, r9, fp, ip, sp}
 134:	000a1c13 	andeq	r1, sl, r3, lsl ip
 138:	00341800 	eorseq	r1, r4, r0, lsl #16
 13c:	0b3a0803 	bleq	e82150 <_Min_Stack_Size+0xe81d50>
 140:	13490b3b 	movtne	r0, #39739	; 0x9b3b
 144:	1d190000 	ldcne	0, cr0, [r9, #-0]
 148:	11133101 	tstne	r3, r1, lsl #2
 14c:	58011201 	stmdapl	r1, {r0, r9, ip}
 150:	010b590b 	tsteq	fp, fp, lsl #18
 154:	1a000013 	bne	1a8 <_Min_Heap_Size+0x1a8>
 158:	13310005 	teqne	r1, #5
 15c:	00000602 	andeq	r0, r0, r2, lsl #12
 160:	31011d1b 	tstcc	r1, fp, lsl sp
 164:	12011113 	andne	r1, r1, #-1073741820	; 0xc0000004
 168:	590b5801 	stmdbpl	fp, {r0, fp, ip, lr}
 16c:	1c00000b 	stcne	0, cr0, [r0], {11}
 170:	1331012e 	teqne	r1, #-2147483637	; 0x8000000b
 174:	01120111 	tsteq	r2, r1, lsl r1
 178:	13010640 	movwne	r0, #5696	; 0x1640
 17c:	2e1d0000 	cdpcs	0, 1, cr0, cr13, cr0, {0}
 180:	030c3f00 	movweq	r3, #52992	; 0xcf00
 184:	3b0b3a0e 	blcc	2ce9c4 <_Min_Stack_Size+0x2ce5c4>
 188:	1201110b 	andne	r1, r1, #-1073741822	; 0xc0000002
 18c:	000a4001 	andeq	r4, sl, r1
 190:	00341e00 	eorseq	r1, r4, r0, lsl #28
 194:	0b3a0e03 	bleq	e839a8 <_Min_Stack_Size+0xe835a8>
 198:	1349053b 	movtne	r0, #38203	; 0x953b
 19c:	0c3c0c3f 	ldceq	12, cr0, [ip], #-252	; 0xffffff04
 1a0:	341f0000 	ldrcc	r0, [pc], #-0	; 1a8 <_Min_Heap_Size+0x1a8>
 1a4:	3a0e0300 	bcc	380dac <_Min_Stack_Size+0x3809ac>
 1a8:	490b3b0b 	stmdbmi	fp, {r0, r1, r3, r8, r9, fp, ip, sp}
 1ac:	3c0c3f13 	stccc	15, cr3, [ip], {19}
 1b0:	2000000c 	andcs	r0, r0, ip
 1b4:	0e030034 	mcreq	0, 0, r0, cr3, cr4, {1}
 1b8:	0b3b0b3a 	bleq	ec2ea8 <_Min_Stack_Size+0xec2aa8>
 1bc:	0c3f1349 	ldceq	3, cr1, [pc], #-292	; a0 <_Min_Heap_Size+0xa0>
 1c0:	00000a02 	andeq	r0, r0, r2, lsl #20
 1c4:	01110100 	tsteq	r1, r0, lsl #2
 1c8:	0b130e25 	bleq	4c3a64 <_Min_Stack_Size+0x4c3664>
 1cc:	0e1b0e03 	cdpeq	14, 1, cr0, cr11, cr3, {0}
 1d0:	01120111 	tsteq	r2, r1, lsl r1
 1d4:	00000610 	andeq	r0, r0, r0, lsl r6
 1d8:	0b002402 	bleq	91e8 <_Min_Stack_Size+0x8de8>
 1dc:	030b3e0b 	movweq	r3, #48651	; 0xbe0b
 1e0:	0300000e 	movweq	r0, #14
 1e4:	0e030016 	mcreq	0, 0, r0, cr3, cr6, {0}
 1e8:	0b3b0b3a 	bleq	ec2ed8 <_Min_Stack_Size+0xec2ad8>
 1ec:	00001349 	andeq	r1, r0, r9, asr #6
 1f0:	0b002404 	bleq	9208 <_Min_Stack_Size+0x8e08>
 1f4:	030b3e0b 	movweq	r3, #48651	; 0xbe0b
 1f8:	05000008 	streq	r0, [r0, #-8]
 1fc:	13490035 	movtne	r0, #36917	; 0x9035
 200:	13060000 	movwne	r0, #24576	; 0x6000
 204:	3a0b0b01 	bcc	2c2e10 <_Min_Stack_Size+0x2c2a10>
 208:	01053b0b 	tsteq	r5, fp, lsl #22
 20c:	07000013 	smladeq	r0, r3, r0, r0
 210:	0e03000d 	cdpeq	0, 0, cr0, cr3, cr13, {0}
 214:	053b0b3a 	ldreq	r0, [fp, #-2874]!	; 0xfffff4c6
 218:	0a381349 	beq	e04f44 <_Min_Stack_Size+0xe04b44>
 21c:	0d080000 	stceq	0, cr0, [r8, #-0]
 220:	3a080300 	bcc	200e28 <_Min_Stack_Size+0x200a28>
 224:	49053b0b 	stmdbmi	r5, {r0, r1, r3, r8, r9, fp, ip, sp}
 228:	000a3813 	andeq	r3, sl, r3, lsl r8
 22c:	00260900 	eoreq	r0, r6, r0, lsl #18
 230:	00001349 	andeq	r1, r0, r9, asr #6
 234:	4901010a 	stmdbmi	r1, {r1, r3, r8}
 238:	00130113 	andseq	r0, r3, r3, lsl r1
 23c:	00210b00 	eoreq	r0, r1, r0, lsl #22
 240:	0b2f1349 	bleq	bc4f6c <_Min_Stack_Size+0xbc4b6c>
 244:	160c0000 	strne	r0, [ip], -r0
 248:	3a0e0300 	bcc	380e50 <_Min_Stack_Size+0x380a50>
 24c:	49053b0b 	stmdbmi	r5, {r0, r1, r3, r8, r9, fp, ip, sp}
 250:	0d000013 	stceq	0, cr0, [r0, #-76]	; 0xffffffb4
 254:	0b0b0104 	bleq	2c066c <_Min_Stack_Size+0x2c026c>
 258:	053b0b3a 	ldreq	r0, [fp, #-2874]!	; 0xfffff4c6
 25c:	00001301 	andeq	r1, r0, r1, lsl #6
 260:	0300280e 	movweq	r2, #2062	; 0x80e
 264:	000d1c0e 	andeq	r1, sp, lr, lsl #24
 268:	00280f00 	eoreq	r0, r8, r0, lsl #30
 26c:	0d1c0803 	ldceq	8, cr0, [ip, #-12]
 270:	2e100000 	cdpcs	0, 1, cr0, cr0, cr0, {0}
 274:	3a0e0301 	bcc	380e80 <_Min_Stack_Size+0x380a80>
 278:	27053b0b 	strcs	r3, [r5, -fp, lsl #22]
 27c:	010b200c 	tsteq	fp, ip
 280:	11000013 	tstne	r0, r3, lsl r0
 284:	0e030034 	mcreq	0, 0, r0, cr3, cr4, {1}
 288:	053b0b3a 	ldreq	r0, [fp, #-2874]!	; 0xfffff4c6
 28c:	00001349 	andeq	r1, r0, r9, asr #6
 290:	3f012e12 	svccc	0x00012e12
 294:	3a0e030c 	bcc	380ecc <_Min_Stack_Size+0x380acc>
 298:	270b3b0b 	strcs	r3, [fp, -fp, lsl #22]
 29c:	1201110c 	andne	r1, r1, #12, 2
 2a0:	01064001 	tsteq	r6, r1
 2a4:	13000013 	movwne	r0, #19
 2a8:	1331011d 	teqne	r1, #1073741831	; 0x40000007
 2ac:	06550152 			; <UNDEFINED> instruction: 0x06550152
 2b0:	0b590b58 	bleq	1643018 <_Min_Stack_Size+0x1642c18>
 2b4:	0b140000 	bleq	5002bc <_Min_Stack_Size+0x4ffebc>
 2b8:	00065501 	andeq	r5, r6, r1, lsl #10
 2bc:	00341500 	eorseq	r1, r4, r0, lsl #10
 2c0:	0a021331 	beq	84f8c <_Min_Stack_Size+0x84b8c>
 2c4:	2e160000 	cdpcs	0, 1, cr0, cr6, cr0, {0}
 2c8:	030c3f01 	movweq	r3, #52993	; 0xcf01
 2cc:	3b0b3a0e 	blcc	2ceb0c <_Min_Stack_Size+0x2ce70c>
 2d0:	110c2705 	tstne	ip, r5, lsl #14
 2d4:	40011201 	andmi	r1, r1, r1, lsl #4
 2d8:	0013010a 	andseq	r0, r3, sl, lsl #2
 2dc:	00341700 	eorseq	r1, r4, r0, lsl #14
 2e0:	0b3a0803 	bleq	e822f4 <_Min_Stack_Size+0xe81ef4>
 2e4:	1349053b 	movtne	r0, #38203	; 0x953b
 2e8:	00000602 	andeq	r0, r0, r2, lsl #12
 2ec:	03003418 	movweq	r3, #1048	; 0x418
 2f0:	3b0b3a0e 	blcc	2ceb30 <_Min_Stack_Size+0x2ce730>
 2f4:	02134905 	andseq	r4, r3, #81920	; 0x14000
 2f8:	19000006 	stmdbne	r0, {r1, r2}
 2fc:	0e030034 	mcreq	0, 0, r0, cr3, cr4, {1}
 300:	053b0b3a 	ldreq	r0, [fp, #-2874]!	; 0xfffff4c6
 304:	0c3f1349 	ldceq	3, cr1, [pc], #-292	; 1e8 <_Min_Heap_Size+0x1e8>
 308:	00000c3c 	andeq	r0, r0, ip, lsr ip
 30c:	0300341a 	movweq	r3, #1050	; 0x41a
 310:	3b0b3a0e 	blcc	2ceb50 <_Min_Stack_Size+0x2ce750>
 314:	3f13490b 	svccc	0x0013490b
 318:	000c3c0c 	andeq	r3, ip, ip, lsl #24
 31c:	00341b00 	eorseq	r1, r4, r0, lsl #22
 320:	0b3a0e03 	bleq	e83b34 <_Min_Stack_Size+0xe83734>
 324:	13490b3b 	movtne	r0, #39739	; 0x9b3b
 328:	0a020c3f 	beq	8342c <_Min_Stack_Size+0x8302c>
 32c:	01000000 	mrseq	r0, (UNDEF: 0)
 330:	06100011 			; <UNDEFINED> instruction: 0x06100011
 334:	08030655 	stmdaeq	r3, {r0, r2, r4, r6, r9, sl}
 338:	0825081b 	stmdaeq	r5!, {r0, r1, r3, r4, fp}
 33c:	00000513 	andeq	r0, r0, r3, lsl r5
 340:	01110100 	tsteq	r1, r0, lsl #2
 344:	0b130e25 	bleq	4c3be0 <_Min_Stack_Size+0x4c37e0>
 348:	0e1b0e03 	cdpeq	14, 1, cr0, cr11, cr3, {0}
 34c:	01120111 	tsteq	r2, r1, lsl r1
 350:	00000610 	andeq	r0, r0, r0, lsl r6
 354:	0b002402 	bleq	9364 <_Min_Stack_Size+0x8f64>
 358:	030b3e0b 	movweq	r3, #48651	; 0xbe0b
 35c:	0300000e 	movweq	r0, #14
 360:	0e030016 	mcreq	0, 0, r0, cr3, cr6, {0}
 364:	0b3b0b3a 	bleq	ec3054 <_Min_Stack_Size+0xec2c54>
 368:	00001349 	andeq	r1, r0, r9, asr #6
 36c:	0b002404 	bleq	9384 <_Min_Stack_Size+0x8f84>
 370:	030b3e0b 	movweq	r3, #48651	; 0xbe0b
 374:	05000008 	streq	r0, [r0, #-8]
 378:	13490035 	movtne	r0, #36917	; 0x9035
 37c:	2e060000 	cdpcs	0, 0, cr0, cr6, cr0, {0}
 380:	030c3f00 	movweq	r3, #52992	; 0xcf00
 384:	3b0b3a0e 	blcc	2cebc4 <_Min_Stack_Size+0x2ce7c4>
 388:	110c270b 	tstne	ip, fp, lsl #14
 38c:	40011201 	andmi	r1, r1, r1, lsl #4
 390:	0700000a 	streq	r0, [r0, -sl]
 394:	0e030034 	mcreq	0, 0, r0, cr3, cr4, {1}
 398:	053b0b3a 	ldreq	r0, [fp, #-2874]!	; 0xfffff4c6
 39c:	0c3f1349 	ldceq	3, cr1, [pc], #-292	; 280 <_Min_Heap_Size+0x280>
 3a0:	00000c3c 	andeq	r0, r0, ip, lsr ip
	...

Disassembly of section .debug_info:

00000000 <.debug_info>:
   0:	000003f5 	strdeq	r0, [r0], -r5
   4:	00000002 	andeq	r0, r0, r2
   8:	01040000 	mrseq	r0, (UNDEF: 4)
   c:	00000251 	andeq	r0, r0, r1, asr r2
  10:	00021801 	andeq	r1, r2, r1, lsl #16
  14:	00017e00 	andeq	r7, r1, r0, lsl #28
  18:	0001b800 	andeq	fp, r1, r0, lsl #16
  1c:	00027c08 	andeq	r7, r2, r8, lsl #24
  20:	00000008 	andeq	r0, r0, r8
  24:	06010200 	streq	r0, [r1], -r0, lsl #4
  28:	00000104 	andeq	r0, r0, r4, lsl #2
  2c:	02080102 	andeq	r0, r8, #-2147483648	; 0x80000000
  30:	02000001 	andeq	r0, r0, #1
  34:	00270502 	eoreq	r0, r7, r2, lsl #10
  38:	5b030000 	blpl	c0040 <_Min_Stack_Size+0xbfc40>
  3c:	02000001 	andeq	r0, r0, #1
  40:	00004536 	andeq	r4, r0, r6, lsr r5
  44:	07020200 	streq	r0, [r2, -r0, lsl #4]
  48:	00000164 	andeq	r0, r0, r4, ror #2
  4c:	00014203 	andeq	r4, r1, r3, lsl #4
  50:	574f0200 	strbpl	r0, [pc, -r0, lsl #4]
  54:	02000000 	andeq	r0, r0, #0
  58:	00b80504 	adcseq	r0, r8, r4, lsl #10
  5c:	41030000 	mrsmi	r0, (UNDEF: 3)
  60:	02000001 	andeq	r0, r0, #1
  64:	00006950 	andeq	r6, r0, r0, asr r9
  68:	07040200 	streq	r0, [r4, -r0, lsl #4]
  6c:	0000012f 	andeq	r0, r0, pc, lsr #2
  70:	b3050802 	movwlt	r0, #22530	; 0x5802
  74:	02000000 	andeq	r0, r0, #0
  78:	012a0708 	teqeq	sl, r8, lsl #14
  7c:	04040000 	streq	r0, [r4], #-0
  80:	746e6905 	strbtvc	r6, [lr], #-2309	; 0xfffff6fb
  84:	07040200 	streq	r0, [r4, -r0, lsl #4]
  88:	00000134 	andeq	r0, r0, r4, lsr r1
  8c:	00005e05 	andeq	r5, r0, r5, lsl #28
  90:	005e0600 	subseq	r0, lr, r0, lsl #12
  94:	00a10000 	adceq	r0, r1, r0
  98:	85070000 	strhi	r0, [r7, #-0]
  9c:	01000000 	mrseq	r0, (UNDEF: 0)
  a0:	003a0500 	eorseq	r0, sl, r0, lsl #10
  a4:	4c050000 	stcmi	0, cr0, [r5], {-0}
  a8:	08000000 	stmdaeq	r0, {}	; <UNPREDICTABLE>
  ac:	011f0301 	tsteq	pc, r1, lsl #6
  b0:	000000c1 	andeq	r0, r0, r1, asr #1
  b4:	00020809 	andeq	r0, r2, r9, lsl #16
  b8:	63090000 	movwvs	r0, #36864	; 0x9000
  bc:	01000000 	mrseq	r0, (UNDEF: 0)
  c0:	03280a00 	teqeq	r8, #0, 20
  c4:	0161028e 	smulbbeq	r1, lr, r2
  c8:	e80b0000 	stmda	fp, {}	; <UNPREDICTABLE>
  cc:	03000000 	movweq	r0, #0
  d0:	008c0290 	umulleq	r0, ip, r0, r2
  d4:	23020000 	movwcs	r0, #8192	; 0x2000
  d8:	00a60b00 	adceq	r0, r6, r0, lsl #22
  dc:	91030000 	mrsls	r0, (UNDEF: 3)
  e0:	00008c02 	andeq	r8, r0, r2, lsl #24
  e4:	04230200 	strteq	r0, [r3], #-512	; 0xfffffe00
  e8:	0002100b 	andeq	r1, r2, fp
  ec:	02920300 	addseq	r0, r2, #0, 6
  f0:	0000008c 	andeq	r0, r0, ip, lsl #1
  f4:	0b082302 	bleq	208d04 <_Min_Stack_Size+0x208904>
  f8:	000000cf 	andeq	r0, r0, pc, asr #1
  fc:	8c029303 	stchi	3, cr9, [r2], {3}
 100:	02000000 	andeq	r0, r0, #0
 104:	490c0c23 	stmdbmi	ip, {r0, r1, r5, sl, fp}
 108:	03005244 	movweq	r5, #580	; 0x244
 10c:	008c0294 	umulleq	r0, ip, r4, r2
 110:	23020000 	movwcs	r0, #8192	; 0x2000
 114:	444f0c10 	strbmi	r0, [pc], #-3088	; 11c <_Min_Heap_Size+0x11c>
 118:	95030052 	strls	r0, [r3, #-82]	; 0xffffffae
 11c:	00008c02 	andeq	r8, r0, r2, lsl #24
 120:	14230200 	strtne	r0, [r3], #-512	; 0xfffffe00
 124:	0000ee0b 	andeq	lr, r0, fp, lsl #28
 128:	02960300 	addseq	r0, r6, #0, 6
 12c:	000000a1 	andeq	r0, r0, r1, lsr #1
 130:	0b182302 	bleq	608d40 <_Min_Stack_Size+0x608940>
 134:	000000e2 	andeq	r0, r0, r2, ror #1
 138:	a1029703 	tstge	r2, r3, lsl #14
 13c:	02000000 	andeq	r0, r0, #0
 140:	d50b1a23 	strle	r1, [fp, #-2595]	; 0xfffff5dd
 144:	03000002 	movweq	r0, #2
 148:	008c0298 	umulleq	r0, ip, r8, r2
 14c:	23020000 	movwcs	r0, #8192	; 0x2000
 150:	46410c1c 			; <UNDEFINED> instruction: 0x46410c1c
 154:	99030052 	stmdbls	r3, {r1, r4, r6}
 158:	00016102 	andeq	r6, r1, r2, lsl #2
 15c:	20230200 	eorcs	r0, r3, r0, lsl #4
 160:	00910500 	addseq	r0, r1, r0, lsl #10
 164:	000d0000 	andeq	r0, sp, r0
 168:	03000000 	movweq	r0, #0
 16c:	00c1029a 	smulleq	r0, r1, sl, r2
 170:	010e0000 	mrseq	r0, (UNDEF: 14)
 174:	01933a04 	orrseq	r3, r3, r4, lsl #20
 178:	d5090000 	strle	r0, [r9, #-0]
 17c:	00000000 	andeq	r0, r0, r0
 180:	0000c109 	andeq	ip, r0, r9, lsl #2
 184:	56090100 	strpl	r0, [r9], -r0, lsl #2
 188:	02000000 	andeq	r0, r0, #0
 18c:	00007509 	andeq	r7, r0, r9, lsl #10
 190:	03000300 	movweq	r0, #768	; 0x300
 194:	000002a4 	andeq	r0, r0, r4, lsr #5
 198:	01723f04 	cmneq	r2, r4, lsl #30
 19c:	010e0000 	mrseq	r0, (UNDEF: 14)
 1a0:	01b34704 			; <UNDEFINED> instruction: 0x01b34704
 1a4:	f4090000 	vst4.8	{d0-d3}, [r9], r0
 1a8:	00000000 	andeq	r0, r0, r0
 1ac:	00003109 	andeq	r3, r0, r9, lsl #2
 1b0:	03000100 	movweq	r0, #256	; 0x100
 1b4:	00000094 	muleq	r0, r4, r0
 1b8:	019e4a04 	orrseq	r4, lr, r4, lsl #20
 1bc:	010e0000 	mrseq	r0, (UNDEF: 14)
 1c0:	01df5204 	bicseq	r5, pc, r4, lsl #4
 1c4:	1a090000 	bne	2401cc <_Min_Stack_Size+0x23fdcc>
 1c8:	00000001 	andeq	r0, r0, r1
 1cc:	00001609 	andeq	r1, r0, r9, lsl #12
 1d0:	75090100 	strvc	r0, [r9, #-256]	; 0xffffff00
 1d4:	02000002 	andeq	r0, r0, #2
 1d8:	00008209 	andeq	r8, r0, r9, lsl #4
 1dc:	03000300 	movweq	r0, #768	; 0x300
 1e0:	0000021f 	andeq	r0, r0, pc, lsl r2
 1e4:	01be5704 			; <UNDEFINED> instruction: 0x01be5704
 1e8:	010e0000 	mrseq	r0, (UNDEF: 14)
 1ec:	02055f04 	andeq	r5, r5, #4, 30
 1f0:	40090000 	andmi	r0, r9, r0
 1f4:	00000002 	andeq	r0, r0, r2
 1f8:	0002b509 	andeq	fp, r2, r9, lsl #10
 1fc:	31090100 	mrscc	r0, (UNDEF: 25)
 200:	02000002 	andeq	r0, r0, #2
 204:	02930300 	addseq	r0, r3, #0, 6
 208:	63040000 	movwvs	r0, #16384	; 0x4000
 20c:	000001ea 	andeq	r0, r0, sl, ror #3
 210:	7504080f 	strvc	r0, [r4, #-2063]	; 0xfffff7f1
 214:	0000025f 	andeq	r0, r0, pc, asr r2
 218:	00000d10 	andeq	r0, r0, r0, lsl sp
 21c:	5e770400 	cdppl	4, 7, cr0, cr7, cr0, {0}
 220:	02000000 	andeq	r0, r0, #0
 224:	da100023 	ble	4002b8 <_Min_Stack_Size+0x3ffeb8>
 228:	04000002 	streq	r0, [r0], #-2
 22c:	0001937a 	andeq	r9, r1, sl, ror r3
 230:	04230200 	strteq	r0, [r3], #-512	; 0xfffffe00
 234:	00006a10 	andeq	r6, r0, r0, lsl sl
 238:	df7d0400 	svcle	0x007d0400
 23c:	02000001 	andeq	r0, r0, #1
 240:	4b100523 	blmi	4016d4 <_Min_Stack_Size+0x4012d4>
 244:	04000000 	streq	r0, [r0], #-0
 248:	0001b380 	andeq	fp, r1, r0, lsl #7
 24c:	06230200 	strteq	r0, [r3], -r0, lsl #4
 250:	00011010 	andeq	r1, r1, r0, lsl r0
 254:	05830400 	streq	r0, [r3, #1024]	; 0x400
 258:	02000002 	andeq	r0, r0, #2
 25c:	03000723 	movweq	r0, #1827	; 0x723
 260:	0000014a 	andeq	r0, r0, sl, asr #2
 264:	02108504 	andseq	r8, r0, #4, 10	; 0x1000000
 268:	01020000 	mrseq	r0, (UNDEF: 2)
 26c:	00010b08 	andeq	r0, r1, r8, lsl #22
 270:	04080200 	streq	r0, [r8], #-512	; 0xfffffe00
 274:	00000044 	andeq	r0, r0, r4, asr #32
 278:	ad040402 	cfstrsge	mvf0, [r4, #-8]
 27c:	02000000 	andeq	r0, r0, #0
 280:	003f0408 	eorseq	r0, pc, r8, lsl #8
 284:	01110000 	tsteq	r1, r0
 288:	000002cf 	andeq	r0, r0, pc, asr #5
 28c:	01017301 	tsteq	r1, r1, lsl #6
 290:	000002a0 	andeq	r0, r0, r0, lsr #5
 294:	00017712 	andeq	r7, r1, r2, lsl r7
 298:	8c730100 	ldfhie	f0, [r3], #-0
 29c:	00000000 	andeq	r0, r0, r0
 2a0:	025d0113 	subseq	r0, sp, #-1073741820	; 0xc0000004
 2a4:	96010000 	strls	r0, [r1], -r0
 2a8:	00027801 	andeq	r7, r2, r1, lsl #16
 2ac:	02bd0100 	adcseq	r0, sp, #0, 2
 2b0:	41140000 	tstmi	r4, r0
 2b4:	96010041 	strls	r0, [r1], -r1, asr #32
 2b8:	00000278 	andeq	r0, r0, r8, ror r2
 2bc:	03011500 	movweq	r1, #5376	; 0x1500
 2c0:	01000002 	tsteq	r0, r2
 2c4:	007e0136 	rsbseq	r0, lr, r6, lsr r1
 2c8:	01b80000 			; <UNDEFINED> instruction: 0x01b80000
 2cc:	02400800 	subeq	r0, r0, #0, 16
 2d0:	00000800 	andeq	r0, r0, r0, lsl #16
 2d4:	036c0000 	cmneq	ip, #0
 2d8:	e0160000 	ands	r0, r6, r0
 2dc:	40080001 	andmi	r0, r8, r1
 2e0:	17080002 	strne	r0, [r8, -r2]
 2e4:	63010061 	movwvs	r0, #4193	; 0x1061
 2e8:	00000278 	andeq	r0, r0, r8, ror r2
 2ec:	61d24004 	bicsvs	r4, r2, r4
 2f0:	00621848 	rsbeq	r1, r2, r8, asr #16
 2f4:	02786301 	rsbseq	r6, r8, #67108864	; 0x4000000
 2f8:	86190000 	ldrhi	r0, [r9], -r0
 2fc:	ec000002 	stc	0, cr0, [r0], {2}
 300:	f4080001 	vst4.8	{d0-d3}, [r8], r1
 304:	01080001 	tsteq	r8, r1
 308:	00031750 	andeq	r1, r3, r0, asr r7
 30c:	02941a00 	addseq	r1, r4, #0, 20
 310:	00200000 	eoreq	r0, r0, r0
 314:	19000000 	stmdbne	r0, {}	; <UNPREDICTABLE>
 318:	00000286 	andeq	r0, r0, r6, lsl #5
 31c:	08000200 	stmdaeq	r0, {r9}
 320:	08000208 	stmdaeq	r0, {r3, r9}
 324:	03345601 	teqeq	r4, #1048576	; 0x100000
 328:	941a0000 	ldrls	r0, [sl], #-0
 32c:	33000002 	movwcc	r0, #2
 330:	00000000 	andeq	r0, r0, r0
 334:	00028619 	andeq	r8, r2, r9, lsl r6
 338:	00021400 	andeq	r1, r2, r0, lsl #8
 33c:	00021c08 	andeq	r1, r2, r8, lsl #24
 340:	515c0108 	cmppl	ip, r8, lsl #2
 344:	1a000003 	bne	358 <_Min_Heap_Size+0x358>
 348:	00000294 	muleq	r0, r4, r2
 34c:	00000046 	andeq	r0, r0, r6, asr #32
 350:	02861b00 	addeq	r1, r6, #0, 22
 354:	022a0000 	eoreq	r0, sl, #0
 358:	02400800 	subeq	r0, r0, #0, 16
 35c:	6a010800 	bvs	42364 <_Min_Stack_Size+0x41f64>
 360:	0002941a 	andeq	r9, r2, sl, lsl r4
 364:	00005900 	andeq	r5, r0, r0, lsl #18
 368:	00000000 	andeq	r0, r0, r0
 36c:	0002861c 	andeq	r8, r2, ip, lsl r6
 370:	00024000 	andeq	r4, r2, r0
 374:	00025208 	andeq	r5, r2, r8, lsl #4
 378:	00006c08 	andeq	r6, r0, r8, lsl #24
 37c:	00038b00 	andeq	r8, r3, r0, lsl #22
 380:	02941a00 	addseq	r1, r4, #0, 20
 384:	008c0000 	addeq	r0, ip, r0
 388:	1d000000 	stcne	0, cr0, [r0, #-0]
 38c:	00028601 	andeq	r8, r2, r1, lsl #12
 390:	54900100 	ldrpl	r0, [r0], #256	; 0x100
 394:	56080002 	strpl	r0, [r8], -r2
 398:	02080002 	andeq	r0, r8, #2
 39c:	a01c007d 	andsge	r0, ip, sp, ror r0
 3a0:	58000002 	stmdapl	r0, {r1}
 3a4:	7c080002 	stcvc	0, cr0, [r8], {2}
 3a8:	aa080002 	bge	2003b8 <_Min_Stack_Size+0x1fffb8>
 3ac:	bd000000 	stclt	0, cr0, [r0, #-0]
 3b0:	1a000003 	bne	3c4 <_Min_Heap_Size+0x3c4>
 3b4:	000002b2 			; <UNDEFINED> instruction: 0x000002b2
 3b8:	000000ca 	andeq	r0, r0, sl, asr #1
 3bc:	02c21e00 	sbceq	r1, r2, #0, 28
 3c0:	1a050000 	bne	1403c8 <_Min_Stack_Size+0x13ffc8>
 3c4:	0000a605 	andeq	sl, r0, r5, lsl #12
 3c8:	1f010100 	svcne	0x00010100
 3cc:	00000262 	andeq	r0, r0, r2, ror #4
 3d0:	025f2501 	subseq	r2, pc, #4194304	; 0x400000
 3d4:	01010000 	mrseq	r0, (UNDEF: 1)
 3d8:	0002c21e 	andeq	ip, r2, lr, lsl r2
 3dc:	051a0500 	ldreq	r0, [sl, #-1280]	; 0xfffffb00
 3e0:	000000a6 	andeq	r0, r0, r6, lsr #1
 3e4:	62200101 	eorvs	r0, r0, #1073741824	; 0x40000000
 3e8:	01000002 	tsteq	r0, r2
 3ec:	00025f25 	andeq	r5, r2, r5, lsr #30
 3f0:	03050100 	movweq	r0, #20736	; 0x5100
 3f4:	20000128 	andcs	r0, r0, r8, lsr #2
 3f8:	00063700 	andeq	r3, r6, r0, lsl #14
 3fc:	c5000200 	strgt	r0, [r0, #-512]	; 0xfffffe00
 400:	04000001 	streq	r0, [r0], #-1
 404:	00025101 	andeq	r5, r2, r1, lsl #2
 408:	04b20100 	ldrteq	r0, [r2], #256	; 0x100
 40c:	017e0000 	cmneq	lr, r0
 410:	027c0000 	rsbseq	r0, ip, #0
 414:	03e40800 	mvneq	r0, #0, 16
 418:	01aa0800 			; <UNDEFINED> instruction: 0x01aa0800
 41c:	01020000 	mrseq	r0, (UNDEF: 2)
 420:	00010406 	andeq	r0, r1, r6, lsl #8
 424:	03540300 	cmpeq	r4, #0, 6
 428:	2a020000 	bcs	80430 <_Min_Stack_Size+0x80030>
 42c:	00000037 	andeq	r0, r0, r7, lsr r0
 430:	02080102 	andeq	r0, r8, #-2147483648	; 0x80000000
 434:	02000001 	andeq	r0, r0, #1
 438:	00270502 	eoreq	r0, r7, r2, lsl #10
 43c:	5b030000 	blpl	c0444 <_Min_Stack_Size+0xc0044>
 440:	02000001 	andeq	r0, r0, #1
 444:	00005036 	andeq	r5, r0, r6, lsr r0
 448:	07020200 	streq	r0, [r2, -r0, lsl #4]
 44c:	00000164 	andeq	r0, r0, r4, ror #2
 450:	00014203 	andeq	r4, r1, r3, lsl #4
 454:	624f0200 	subvs	r0, pc, #0, 4
 458:	02000000 	andeq	r0, r0, #0
 45c:	00b80504 	adcseq	r0, r8, r4, lsl #10
 460:	41030000 	mrsmi	r0, (UNDEF: 3)
 464:	02000001 	andeq	r0, r0, #1
 468:	00007450 	andeq	r7, r0, r0, asr r4
 46c:	07040200 	streq	r0, [r4, -r0, lsl #4]
 470:	0000012f 	andeq	r0, r0, pc, lsr #2
 474:	b3050802 	movwlt	r0, #22530	; 0x5802
 478:	02000000 	andeq	r0, r0, #0
 47c:	012a0708 	teqeq	sl, r8, lsl #14
 480:	04040000 	streq	r0, [r4], #-0
 484:	746e6905 	strbtvc	r6, [lr], #-2309	; 0xfffff6fb
 488:	07040200 	streq	r0, [r4, -r0, lsl #4]
 48c:	00000134 	andeq	r0, r0, r4, lsr r1
 490:	00006905 	andeq	r6, r0, r5, lsl #18
 494:	038c0600 	orreq	r0, ip, #0, 12
 498:	01e2014f 	mvneq	r0, pc, asr #2
 49c:	30070000 	andcc	r0, r7, r0
 4a0:	03000003 	movweq	r0, #3
 4a4:	01e20151 	mvneq	r0, r1, asr r1
 4a8:	23020000 	movwcs	r0, #8192	; 0x2000
 4ac:	03040700 	movweq	r0, #18176	; 0x4700
 4b0:	52030000 	andpl	r0, r3, #0
 4b4:	00009701 	andeq	r9, r0, r1, lsl #14
 4b8:	04230200 	strteq	r0, [r3], #-512	; 0xfffffe00
 4bc:	00041107 	andeq	r1, r4, r7, lsl #2
 4c0:	01530300 	cmpeq	r3, r0, lsl #6
 4c4:	00000097 	muleq	r0, r7, r0
 4c8:	07082302 	streq	r2, [r8, -r2, lsl #6]
 4cc:	000003b0 			; <UNDEFINED> instruction: 0x000003b0
 4d0:	97015403 	strls	r5, [r1, -r3, lsl #8]
 4d4:	02000000 	andeq	r0, r0, #0
 4d8:	53080c23 	movwpl	r0, #35875	; 0x8c23
 4dc:	03005243 	movweq	r5, #579	; 0x243
 4e0:	00970155 	addseq	r0, r7, r5, asr r1
 4e4:	23020000 	movwcs	r0, #8192	; 0x2000
 4e8:	43430810 	movtmi	r0, #14352	; 0x3810
 4ec:	56030052 			; <UNDEFINED> instruction: 0x56030052
 4f0:	00009701 	andeq	r9, r0, r1, lsl #14
 4f4:	14230200 	strtne	r0, [r3], #-512	; 0xfffffe00
 4f8:	50485308 	subpl	r5, r8, r8, lsl #6
 4fc:	01570300 	cmpeq	r7, r0, lsl #6
 500:	000001f7 	strdeq	r0, [r0], -r7
 504:	07182302 	ldreq	r2, [r8, -r2, lsl #6]
 508:	000003d6 	ldrdeq	r0, [r0], -r6
 50c:	97015803 	strls	r5, [r1, -r3, lsl #16]
 510:	02000000 	andeq	r0, r0, #0
 514:	8e072423 	cdphi	4, 0, cr2, cr7, cr3, {1}
 518:	03000003 	movweq	r0, #3
 51c:	00970159 	addseq	r0, r7, r9, asr r1
 520:	23020000 	movwcs	r0, #8192	; 0x2000
 524:	04300728 	ldrteq	r0, [r0], #-1832	; 0xfffff8d8
 528:	5a030000 	bpl	c0530 <_Min_Stack_Size+0xc0130>
 52c:	00009701 	andeq	r9, r0, r1, lsl #14
 530:	2c230200 	sfmcs	f0, 4, [r3], #-0
 534:	00041b07 	andeq	r1, r4, r7, lsl #22
 538:	015b0300 	cmpeq	fp, r0, lsl #6
 53c:	00000097 	muleq	r0, r7, r0
 540:	07302302 	ldreq	r2, [r0, -r2, lsl #6]!
 544:	000003f2 	strdeq	r0, [r0], -r2
 548:	97015c03 	strls	r5, [r1, -r3, lsl #24]
 54c:	02000000 	andeq	r0, r0, #0
 550:	74073423 	strvc	r3, [r7], #-1059	; 0xfffffbdd
 554:	03000003 	movweq	r0, #3
 558:	0097015d 	addseq	r0, r7, sp, asr r1
 55c:	23020000 	movwcs	r0, #8192	; 0x2000
 560:	04c50738 	strbeq	r0, [r5], #1848	; 0x738
 564:	5e030000 	cdppl	0, 0, cr0, cr3, cr0, {0}
 568:	00009701 	andeq	r9, r0, r1, lsl #14
 56c:	3c230200 	sfmcc	f0, 4, [r3], #-0
 570:	52465008 	subpl	r5, r6, #8
 574:	015f0300 	cmpeq	pc, r0, lsl #6
 578:	0000020c 	andeq	r0, r0, ip, lsl #4
 57c:	08402302 	stmdaeq	r0, {r1, r8, r9, sp}^
 580:	00524644 	subseq	r4, r2, r4, asr #12
 584:	e2016003 	and	r6, r1, #3
 588:	02000001 	andeq	r0, r0, #1
 58c:	41084823 	tstmi	r8, r3, lsr #16
 590:	03005244 	movweq	r5, #580	; 0x244
 594:	01e20161 	mvneq	r0, r1, ror #2
 598:	23020000 	movwcs	r0, #8192	; 0x2000
 59c:	043f074c 	ldrteq	r0, [pc], #-1868	; 5a4 <_Min_Stack_Size+0x1a4>
 5a0:	62030000 	andvs	r0, r3, #0
 5a4:	00022601 	andeq	r2, r2, r1, lsl #12
 5a8:	50230200 	eorpl	r0, r3, r0, lsl #4
 5ac:	00041607 	andeq	r1, r4, r7, lsl #12
 5b0:	01630300 	cmneq	r3, r0, lsl #6
 5b4:	00000240 	andeq	r0, r0, r0, asr #4
 5b8:	07602302 	strbeq	r2, [r0, -r2, lsl #6]!
 5bc:	00000336 	andeq	r0, r0, r6, lsr r3
 5c0:	30016403 	andcc	r6, r1, r3, lsl #8
 5c4:	02000002 	andeq	r0, r0, #2
 5c8:	e1077423 	tst	r7, r3, lsr #8
 5cc:	03000004 	movweq	r0, #4
 5d0:	00970165 	addseq	r0, r7, r5, ror #2
 5d4:	23030000 	movwcs	r0, #12288	; 0x3000
 5d8:	09000188 	stmdbeq	r0, {r3, r7, r8}
 5dc:	00000097 	muleq	r0, r7, r0
 5e0:	00002c0a 	andeq	r2, r0, sl, lsl #24
 5e4:	0001f700 	andeq	pc, r1, r0, lsl #14
 5e8:	00900b00 	addseq	r0, r0, r0, lsl #22
 5ec:	000b0000 	andeq	r0, fp, r0
 5f0:	0001e705 	andeq	lr, r1, r5, lsl #14
 5f4:	00690a00 	rsbeq	r0, r9, r0, lsl #20
 5f8:	020c0000 	andeq	r0, ip, #0
 5fc:	900b0000 	andls	r0, fp, r0
 600:	01000000 	mrseq	r0, (UNDEF: 0)
 604:	02110900 	andseq	r0, r1, #0, 18
 608:	fc050000 	stc2	0, cr0, [r5], {-0}
 60c:	0a000001 	beq	618 <_Min_Stack_Size+0x218>
 610:	00000069 	andeq	r0, r0, r9, rrx
 614:	00000226 	andeq	r0, r0, r6, lsr #4
 618:	0000900b 	andeq	r9, r0, fp
 61c:	09000300 	stmdbeq	r0, {r8, r9}
 620:	0000022b 	andeq	r0, r0, fp, lsr #4
 624:	00021605 	andeq	r1, r2, r5, lsl #12
 628:	00690a00 	rsbeq	r0, r9, r0, lsl #20
 62c:	02400000 	subeq	r0, r0, #0
 630:	900b0000 	andls	r0, fp, r0
 634:	04000000 	streq	r0, [r0], #-0
 638:	02450900 	subeq	r0, r5, #0, 18
 63c:	30050000 	andcc	r0, r5, r0
 640:	0c000002 	stceq	0, cr0, [r0], {2}
 644:	000003b6 			; <UNDEFINED> instruction: 0x000003b6
 648:	9c016603 	stcls	6, cr6, [r1], {3}
 64c:	05000000 	streq	r0, [r0, #-0]
 650:	00000057 	andeq	r0, r0, r7, asr r0
 654:	1d04010d 	stfnes	f0, [r4, #-52]	; 0xffffffcc
 658:	00027101 	andeq	r7, r2, r1, lsl #2
 65c:	04980e00 	ldreq	r0, [r8], #3584	; 0xe00
 660:	0f000000 	svceq	0x00000000
 664:	00544553 	subseq	r4, r4, r3, asr r5
 668:	18060001 	stmdane	r6, {r0}
 66c:	d3024504 	movwle	r4, #9476	; 0x2504
 670:	08000002 	stmdaeq	r0, {r1}
 674:	00524341 	subseq	r4, r2, r1, asr #6
 678:	97024704 	strls	r4, [r2, -r4, lsl #14]
 67c:	02000000 	andeq	r0, r0, #0
 680:	6f070023 	svcvs	0x00070023
 684:	04000003 	streq	r0, [r0], #-3
 688:	00970248 	addseq	r0, r7, r8, asr #4
 68c:	23020000 	movwcs	r0, #8192	; 0x2000
 690:	036c0704 	cmneq	ip, #4, 14	; 0x100000
 694:	49040000 	stmdbmi	r4, {}	; <UNPREDICTABLE>
 698:	00009702 	andeq	r9, r0, r2, lsl #14
 69c:	08230200 	stmdaeq	r3!, {r9}
 6a0:	00525308 	subseq	r5, r2, r8, lsl #6
 6a4:	97024a04 	strls	r4, [r2, -r4, lsl #20]
 6a8:	02000000 	andeq	r0, r0, #0
 6ac:	43080c23 	movwmi	r0, #35875	; 0x8c23
 6b0:	4b040052 	blmi	100800 <_Min_Stack_Size+0x100400>
 6b4:	00009702 	andeq	r9, r0, r2, lsl #14
 6b8:	10230200 	eorne	r0, r3, r0, lsl #4
 6bc:	0004f107 	andeq	pc, r4, r7, lsl #2
 6c0:	024c0400 	subeq	r0, ip, #0, 8
 6c4:	00000097 	muleq	r0, r7, r0
 6c8:	00142302 	andseq	r2, r4, r2, lsl #6
 6cc:	0004d30c 	andeq	sp, r4, ip, lsl #6
 6d0:	024d0400 	subeq	r0, sp, #0, 8
 6d4:	00000271 	andeq	r0, r0, r1, ror r2
 6d8:	d3040806 	movwle	r0, #18438	; 0x4806
 6dc:	00030602 	andeq	r0, r3, r2, lsl #12
 6e0:	52430800 	subpl	r0, r3, #0, 16
 6e4:	02d50400 	sbcseq	r0, r5, #0, 8
 6e8:	00000097 	muleq	r0, r7, r0
 6ec:	08002302 	stmdaeq	r0, {r1, r8, r9, sp}
 6f0:	00525343 	subseq	r5, r2, r3, asr #6
 6f4:	9702d604 	strls	sp, [r2, -r4, lsl #12]
 6f8:	02000000 	andeq	r0, r0, #0
 6fc:	0c000423 	cfstrseq	mvf0, [r0], {35}	; 0x23
 700:	00000314 	andeq	r0, r0, r4, lsl r3
 704:	df02d704 	svcle	0x0002d704
 708:	06000002 	streq	r0, [r0], -r2
 70c:	02dd0488 	sbcseq	r0, sp, #136, 8	; 0x88000000
 710:	000004df 	ldrdeq	r0, [r0], -pc	; <UNPREDICTABLE>
 714:	00524308 	subseq	r4, r2, r8, lsl #6
 718:	9702df04 	strls	sp, [r2, -r4, lsl #30]
 71c:	02000000 	andeq	r0, r0, #0
 720:	f8070023 			; <UNDEFINED> instruction: 0xf8070023
 724:	04000003 	streq	r0, [r0], #-3
 728:	009702e0 	addseq	r0, r7, r0, ror #5
 72c:	23020000 	movwcs	r0, #8192	; 0x2000
 730:	03fb0704 	mvnseq	r0, #4, 14	; 0x100000
 734:	e1040000 	mrs	r0, (UNDEF: 4)
 738:	00009702 	andeq	r9, r0, r2, lsl #14
 73c:	08230200 	stmdaeq	r3!, {r9}
 740:	52494308 	subpl	r4, r9, #8, 6	; 0x20000000
 744:	02e20400 	rsceq	r0, r2, #0, 8
 748:	00000097 	muleq	r0, r7, r0
 74c:	070c2302 	streq	r2, [ip, -r2, lsl #6]
 750:	000004a9 	andeq	r0, r0, r9, lsr #9
 754:	9702e304 	strls	lr, [r2, -r4, lsl #6]
 758:	02000000 	andeq	r0, r0, #0
 75c:	93071023 	movwls	r1, #28707	; 0x7023
 760:	04000003 	streq	r0, [r0], #-3
 764:	009702e4 	addseq	r0, r7, r4, ror #5
 768:	23020000 	movwcs	r0, #8192	; 0x2000
 76c:	04ca0714 	strbeq	r0, [sl], #1812	; 0x714
 770:	e5040000 	str	r0, [r4, #-0]
 774:	00009702 	andeq	r9, r0, r2, lsl #14
 778:	18230200 	stmdane	r3!, {r9}
 77c:	00033607 	andeq	r3, r3, r7, lsl #12
 780:	02e60400 	rsceq	r0, r6, #0, 8
 784:	00000069 	andeq	r0, r0, r9, rrx
 788:	071c2302 	ldreq	r2, [ip, -r2, lsl #6]
 78c:	000002ee 	andeq	r0, r0, lr, ror #5
 790:	9702e704 	strls	lr, [r2, -r4, lsl #14]
 794:	02000000 	andeq	r0, r0, #0
 798:	85072023 	strhi	r2, [r7, #-35]	; 0xffffffdd
 79c:	04000003 	streq	r0, [r0], #-3
 7a0:	009702e8 	addseq	r0, r7, r8, ror #5
 7a4:	23020000 	movwcs	r0, #8192	; 0x2000
 7a8:	04520724 	ldrbeq	r0, [r2], #-1828	; 0xfffff8dc
 7ac:	e9040000 	stmdb	r4, {}	; <UNPREDICTABLE>
 7b0:	0001fc02 	andeq	pc, r1, r2, lsl #24
 7b4:	28230200 	stmdacs	r3!, {r9}
 7b8:	00049007 	andeq	r9, r4, r7
 7bc:	02ea0400 	rsceq	r0, sl, #0, 8
 7c0:	00000097 	muleq	r0, r7, r0
 7c4:	07302302 	ldreq	r2, [r0, -r2, lsl #6]!
 7c8:	000002f7 	strdeq	r0, [r0], -r7
 7cc:	9702eb04 	strls	lr, [r2, -r4, lsl #22]
 7d0:	02000000 	andeq	r0, r0, #0
 7d4:	64073423 	strvs	r3, [r7], #-1059	; 0xfffffbdd
 7d8:	04000003 	streq	r0, [r0], #-3
 7dc:	009702ec 	addseq	r0, r7, ip, ror #5
 7e0:	23020000 	movwcs	r0, #8192	; 0x2000
 7e4:	045c0738 	ldrbeq	r0, [ip], #-1848	; 0xfffff8c8
 7e8:	ed040000 	stc	0, cr0, [r4, #-0]
 7ec:	00006902 	andeq	r6, r0, r2, lsl #18
 7f0:	3c230200 	sfmcc	f0, 4, [r3], #-0
 7f4:	00035c07 	andeq	r5, r3, r7, lsl #24
 7f8:	02ee0400 	rsceq	r0, lr, #0, 8
 7fc:	00000097 	muleq	r0, r7, r0
 800:	07402302 	strbeq	r2, [r0, -r2, lsl #6]
 804:	000003bf 			; <UNDEFINED> instruction: 0x000003bf
 808:	9702ef04 	strls	lr, [r2, -r4, lsl #30]
 80c:	02000000 	andeq	r0, r0, #0
 810:	4a074423 	bmi	1d18a4 <_Min_Stack_Size+0x1d14a4>
 814:	04000003 	streq	r0, [r0], #-3
 818:	01fc02f0 	ldrsheq	r0, [ip, #32]!
 81c:	23020000 	movwcs	r0, #8192	; 0x2000
 820:	02e40748 	rsceq	r0, r4, #72, 14	; 0x1200000
 824:	f1040000 	cps	#0
 828:	00009702 	andeq	r9, r0, r2, lsl #14
 82c:	50230200 	eorpl	r0, r3, r0, lsl #4
 830:	00043507 	andeq	r3, r4, r7, lsl #10
 834:	02f20400 	rscseq	r0, r2, #0, 8
 838:	00000097 	muleq	r0, r7, r0
 83c:	07542302 	ldrbeq	r2, [r4, -r2, lsl #6]
 840:	00000340 	andeq	r0, r0, r0, asr #6
 844:	9702f304 	strls	pc, [r2, -r4, lsl #6]
 848:	02000000 	andeq	r0, r0, #0
 84c:	72075823 	andvc	r5, r7, #2293760	; 0x230000
 850:	04000004 	streq	r0, [r0], #-4
 854:	006902f4 	strdeq	r0, [r9], #-36	; 0xffffffdc	; <UNPREDICTABLE>
 858:	23020000 	movwcs	r0, #8192	; 0x2000
 85c:	0400075c 	streq	r0, [r0], #-1884	; 0xfffff8a4
 860:	f5040000 			; <UNDEFINED> instruction: 0xf5040000
 864:	00009702 	andeq	r9, r0, r2, lsl #14
 868:	60230200 	eorvs	r0, r3, r0, lsl #4
 86c:	0004e707 	andeq	lr, r4, r7, lsl #14
 870:	02f60400 	rscseq	r0, r6, #0, 8
 874:	00000097 	muleq	r0, r7, r0
 878:	07642302 	strbeq	r2, [r4, -r2, lsl #6]!
 87c:	0000047c 	andeq	r0, r0, ip, ror r4
 880:	fc02f704 	stc2	7, cr15, [r2], {4}
 884:	02000001 	andeq	r0, r0, #1
 888:	ff076823 			; <UNDEFINED> instruction: 0xff076823
 88c:	04000002 	streq	r0, [r0], #-2
 890:	009702f8 			; <UNDEFINED> instruction: 0x009702f8
 894:	23020000 	movwcs	r0, #8192	; 0x2000
 898:	53430870 	movtpl	r0, #14448	; 0x3870
 89c:	f9040052 			; <UNDEFINED> instruction: 0xf9040052
 8a0:	00009702 	andeq	r9, r0, r2, lsl #14
 8a4:	74230200 	strtvc	r0, [r3], #-512	; 0xfffffe00
 8a8:	00048607 	andeq	r8, r4, r7, lsl #12
 8ac:	02fa0400 	rscseq	r0, sl, #0, 8
 8b0:	000001fc 	strdeq	r0, [r0], -ip
 8b4:	07782302 	ldrbeq	r2, [r8, -r2, lsl #6]!
 8b8:	00000320 	andeq	r0, r0, r0, lsr #6
 8bc:	9702fb04 	strls	pc, [r2, -r4, lsl #22]
 8c0:	03000000 	movweq	r0, #0
 8c4:	07018023 	streq	r8, [r1, -r3, lsr #32]
 8c8:	00000309 	andeq	r0, r0, r9, lsl #6
 8cc:	9702fc04 	strls	pc, [r2, -r4, lsl #24]
 8d0:	03000000 	movweq	r0, #0
 8d4:	00018423 	andeq	r8, r1, r3, lsr #8
 8d8:	0003790c 	andeq	r7, r3, ip, lsl #18
 8dc:	02fd0400 	rscseq	r0, sp, #0, 8
 8e0:	00000312 	andeq	r0, r0, r2, lsl r3
 8e4:	00046610 	andeq	r6, r4, r0, lsl r6
 8e8:	014d0100 	mrseq	r0, (UNDEF: 93)
 8ec:	05120101 	ldreq	r0, [r2, #-257]	; 0xfffffeff
 8f0:	c7110000 	ldrgt	r0, [r1, -r0]
 8f4:	01000003 	tsteq	r0, r3
 8f8:	00970152 	addseq	r0, r7, r2, asr r1
 8fc:	26110000 	ldrcs	r0, [r1], -r0
 900:	01000003 	tsteq	r0, r3
 904:	00970152 	addseq	r0, r7, r2, asr r1
 908:	12000000 	andne	r0, r0, #0
 90c:	00049e01 	andeq	r9, r4, r1, lsl #28
 910:	01cc0100 	biceq	r0, ip, r0, lsl #2
 914:	0800027c 	stmdaeq	r0, {r2, r3, r4, r5, r6, r9}
 918:	08000378 	stmdaeq	r0, {r3, r4, r5, r6, r8, r9}
 91c:	000000e8 	andeq	r0, r0, r8, ror #1
 920:	00000552 	andeq	r0, r0, r2, asr r5
 924:	0004eb13 	andeq	lr, r4, r3, lsl fp
 928:	0002a600 	andeq	sl, r2, r0, lsl #12
 92c:	00000008 	andeq	r0, r0, r8
 930:	14e70100 	strbtne	r0, [r7], #256	; 0x100
 934:	00000018 	andeq	r0, r0, r8, lsl r0
 938:	0004f915 	andeq	pc, r4, r5, lsl r9	; <UNPREDICTABLE>
 93c:	7c910200 	lfmvc	f0, 4, [r1], {0}
 940:	00050515 	andeq	r0, r5, r5, lsl r5
 944:	78910200 	ldmvc	r1, {r9}
 948:	16000000 	strne	r0, [r0], -r0
 94c:	0003dc01 	andeq	sp, r3, r1, lsl #24
 950:	01150100 	tsteq	r5, r0, lsl #2
 954:	00037801 	andeq	r7, r3, r1, lsl #16
 958:	0003e408 	andeq	lr, r3, r8, lsl #8
 95c:	007d0208 	rsbseq	r0, sp, r8, lsl #4
 960:	000005bc 			; <UNDEFINED> instruction: 0x000005bc
 964:	706d7417 	rsbvc	r7, sp, r7, lsl r4
 968:	01170100 	tsteq	r7, r0, lsl #2
 96c:	00000069 	andeq	r0, r0, r9, rrx
 970:	00000108 	andeq	r0, r0, r8, lsl #2
 974:	00040a18 	andeq	r0, r4, r8, lsl sl
 978:	01170100 	tsteq	r7, r0, lsl #2
 97c:	00000069 	andeq	r0, r0, r9, rrx
 980:	0000014c 	andeq	r0, r0, ip, asr #2
 984:	0003ab18 	andeq	sl, r3, r8, lsl fp
 988:	01170100 	tsteq	r7, r0, lsl #2
 98c:	00000069 	andeq	r0, r0, r9, rrx
 990:	00000177 	andeq	r0, r0, r7, ror r1
 994:	00039c18 	andeq	r9, r3, r8, lsl ip
 998:	01170100 	tsteq	r7, r0, lsl #2
 99c:	00000069 	andeq	r0, r0, r9, rrx
 9a0:	000001b0 			; <UNDEFINED> instruction: 0x000001b0
 9a4:	0003a618 	andeq	sl, r3, r8, lsl r6
 9a8:	01170100 	tsteq	r7, r0, lsl #2
 9ac:	00000069 	andeq	r0, r0, r9, rrx
 9b0:	000001e5 	andeq	r0, r0, r5, ror #3
 9b4:	02c21900 	sbceq	r1, r2, #0, 18
 9b8:	1a030000 	bne	c09c0 <_Min_Stack_Size+0xc05c0>
 9bc:	00025605 	andeq	r5, r2, r5, lsl #12
 9c0:	1a010100 	bne	40dc8 <_Min_Stack_Size+0x409c8>
 9c4:	00000420 	andeq	r0, r0, r0, lsr #8
 9c8:	00693505 	rsbeq	r3, r9, r5, lsl #10
 9cc:	01010000 	mrseq	r0, (UNDEF: 1)
 9d0:	00002c0a 	andeq	r2, r0, sl, lsl #24
 9d4:	0005e700 	andeq	lr, r5, r0, lsl #14
 9d8:	00900b00 	addseq	r0, r0, r0, lsl #22
 9dc:	000f0000 	andeq	r0, pc, r0
 9e0:	0004441a 	andeq	r4, r4, sl, lsl r4
 9e4:	f4ae0100 	vld2.8	{d0[0],d1[0]}, [lr], r0
 9e8:	01000005 	tsteq	r0, r5
 9ec:	05f90901 	ldrbeq	r0, [r9, #2305]!	; 0x901
 9f0:	d7050000 	strle	r0, [r5, -r0]
 9f4:	19000005 	stmdbne	r0, {r0, r2}
 9f8:	000002c2 	andeq	r0, r0, r2, asr #5
 9fc:	56051a03 	strpl	r1, [r5], -r3, lsl #20
 a00:	01000002 	tsteq	r0, r2
 a04:	04201b01 	strteq	r1, [r0], #-2817	; 0xfffff4ff
 a08:	ac010000 	stcge	0, cr0, [r1], {-0}
 a0c:	00000069 	andeq	r0, r0, r9, rrx
 a10:	14030501 	strne	r0, [r3], #-1281	; 0xfffffaff
 a14:	1b200000 	blne	800a1c <_Min_Stack_Size+0x80061c>
 a18:	00000444 	andeq	r0, r0, r4, asr #8
 a1c:	0630ae01 	ldrteq	sl, [r0], -r1, lsl #28
 a20:	05010000 	streq	r0, [r1, #-0]
 a24:	00000403 	andeq	r0, r0, r3, lsl #8
 a28:	06350920 	ldrteq	r0, [r5], -r0, lsr #18
 a2c:	d7050000 	strle	r0, [r5, -r0]
 a30:	00000005 	andeq	r0, r0, r5
 a34:	000000fb 	strdeq	r0, [r0], -fp
 a38:	032f0002 	teqeq	pc, #2
 a3c:	01040000 	mrseq	r0, (UNDEF: 4)
 a40:	00000346 	andeq	r0, r0, r6, asr #6
 a44:	00000030 	andeq	r0, r0, r0, lsr r0
 a48:	2e2f2e2e 	cdpcs	14, 2, cr2, cr15, cr14, {1}
 a4c:	2e2e2f2e 	cdpcs	15, 2, cr2, cr14, cr14, {1}
 a50:	62694c2f 	rsbvs	r4, r9, #12032	; 0x2f00
 a54:	69726172 	ldmdbvs	r2!, {r1, r4, r5, r6, r8, sp, lr}^
 a58:	432f7365 	teqmi	pc, #-1811939327	; 0x94000001
 a5c:	5349534d 	movtpl	r5, #37709	; 0x934d
 a60:	2f54532f 	svccs	0x0054532f
 a64:	334d5453 	movtcc	r5, #54355	; 0xd453
 a68:	78344632 	ldmdavc	r4!, {r1, r4, r5, r9, sl, lr}
 a6c:	6f532f78 	svcvs	0x00532f78
 a70:	65637275 	strbvs	r7, [r3, #-629]!	; 0xfffffd8b
 a74:	6d65542f 	cfstrdvs	mvd5, [r5, #-188]!	; 0xffffff44
 a78:	74616c70 	strbtvc	r6, [r1], #-3184	; 0xfffff390
 a7c:	672f7365 	strvs	r7, [pc, -r5, ror #6]!
 a80:	725f6363 	subsvc	r6, pc, #-1946157055	; 0x8c000001
 a84:	37656469 	strbcc	r6, [r5, -r9, ror #8]!
 a88:	6174732f 	cmnvs	r4, pc, lsr #6
 a8c:	70757472 	rsbsvc	r7, r5, r2, ror r4
 a90:	6d74735f 	ldclvs	3, cr7, [r4, #-380]!	; 0xfffffe84
 a94:	34663233 	strbtcc	r3, [r6], #-563	; 0xfffffdcd
 a98:	732e7878 	teqvc	lr, #120, 16	; 0x780000
 a9c:	6f682f00 	svcvs	0x00682f00
 aa0:	6a2f656d 	bvs	bda05c <_Min_Stack_Size+0xbd9c5c>
 aa4:	64696461 	strbtvs	r6, [r9], #-1121	; 0xfffffb9f
 aa8:	6f726d2f 	svcvs	0x00726d2f
 aac:	6d617267 	sfmvs	f7, 2, [r1, #-412]!	; 0xfffffe64
 ab0:	4d54532f 	ldclmi	3, cr5, [r4, #-188]	; 0xffffff44
 ab4:	34463233 	strbcc	r3, [r6], #-563	; 0xfffffdcd
 ab8:	7865742f 	stmdavc	r5!, {r0, r1, r2, r3, r5, sl, ip, sp, lr}^
 abc:	2d656e61 	stclcs	14, cr6, [r5, #-388]!	; 0xfffffe7c
 ac0:	696c7473 	stmdbvs	ip!, {r0, r1, r4, r5, r6, sl, ip, sp, lr}^
 ac4:	652f6b6e 	strvs	r6, [pc, #-2926]!	; ffffff5e <_estack+0xdffdff5e>
 ac8:	706d6178 	rsbvc	r6, sp, r8, ror r1
 acc:	732f656c 	teqvc	pc, #108, 10	; 0x1b000000
 ad0:	32336d74 	eorscc	r6, r3, #116, 26	; 0x1d00
 ad4:	502f3466 	eorpl	r3, pc, r6, ror #8
 ad8:	656a6f72 	strbvs	r6, [sl, #-3954]!	; 0xfffff08e
 adc:	2f737463 	svccs	0x00737463
 ae0:	334d5453 	movtcc	r5, #54355	; 0xd453
 ae4:	2d344632 	ldccs	6, cr4, [r4, #-200]!	; 0xffffff38
 ae8:	63736944 	cmnvs	r3, #68, 18	; 0x110000
 aec:	7265766f 	rsbvc	r7, r5, #116391936	; 0x6f00000
 af0:	57465f79 	smlsldxpl	r5, r6, r9, pc	; <UNPREDICTABLE>
 af4:	2e31565f 	mrccs	6, 1, r5, cr1, cr15, {2}
 af8:	2f302e31 	svccs	0x00302e31
 afc:	6a6f7250 	bvs	1bdd444 <_Min_Stack_Size+0x1bdd044>
 b00:	2f746365 	svccs	0x00746365
 b04:	69726550 	ldmdbvs	r2!, {r4, r6, r8, sl, sp, lr}^
 b08:	72656870 	rsbvc	r6, r5, #112, 16	; 0x700000
 b0c:	455f6c61 	ldrbmi	r6, [pc, #-3169]	; fffffeb3 <_estack+0xdffdfeb3>
 b10:	706d6178 	rsbvc	r6, sp, r8, ror r1
 b14:	2f73656c 	svccs	0x0073656c
 b18:	545f4f49 	ldrbpl	r4, [pc], #-3913	; b20 <_Min_Stack_Size+0x720>
 b1c:	6c67676f 	stclvs	7, cr6, [r7], #-444	; 0xfffffe44
 b20:	4e470065 	cdpmi	0, 4, cr0, cr7, cr5, {3}
 b24:	53412055 	movtpl	r2, #4181	; 0x1055
 b28:	322e3220 	eorcc	r3, lr, #32, 4
 b2c:	31352e30 	teqcc	r5, r0, lsr lr
 b30:	48800100 	stmmi	r0, {r8}
 b34:	02000001 	andeq	r0, r0, #1
 b38:	00034100 	andeq	r4, r3, r0, lsl #2
 b3c:	51010400 	tstpl	r1, r0, lsl #8
 b40:	01000002 	tsteq	r0, r2
 b44:	0000051b 	andeq	r0, r0, fp, lsl r5
 b48:	0000017e 	andeq	r0, r0, lr, ror r1
 b4c:	080003f8 	stmdaeq	r0, {r3, r4, r5, r6, r7, r8, r9}
 b50:	0800041a 	stmdaeq	r0, {r1, r3, r4, sl}
 b54:	000003ef 	andeq	r0, r0, pc, ror #7
 b58:	04060102 	streq	r0, [r6], #-258	; 0xfffffefe
 b5c:	02000001 	andeq	r0, r0, #1
 b60:	01020801 	tsteq	r2, r1, lsl #16
 b64:	02020000 	andeq	r0, r2, #0
 b68:	00002705 	andeq	r2, r0, r5, lsl #14
 b6c:	07020200 	streq	r0, [r2, -r0, lsl #4]
 b70:	00000164 	andeq	r0, r0, r4, ror #2
 b74:	00014203 	andeq	r4, r1, r3, lsl #4
 b78:	4c4f0300 	mcrrmi	3, 0, r0, pc, cr0
 b7c:	02000000 	andeq	r0, r0, #0
 b80:	00b80504 	adcseq	r0, r8, r4, lsl #10
 b84:	04020000 	streq	r0, [r2], #-0
 b88:	00012f07 	andeq	r2, r1, r7, lsl #30
 b8c:	05080200 	streq	r0, [r8, #-512]	; 0xfffffe00
 b90:	000000b3 	strheq	r0, [r0], -r3
 b94:	2a070802 	bcs	1c2ba4 <_Min_Stack_Size+0x1c27a4>
 b98:	04000001 	streq	r0, [r0], #-1
 b9c:	6e690504 	cdpvs	5, 6, cr0, cr9, cr4, {0}
 ba0:	04020074 	streq	r0, [r2], #-116	; 0xffffff8c
 ba4:	00013407 	andeq	r3, r1, r7, lsl #8
 ba8:	00410500 	subeq	r0, r1, r0, lsl #10
 bac:	01060000 	mrseq	r0, (UNDEF: 6)
 bb0:	0000053c 	andeq	r0, r0, ip, lsr r5
 bb4:	f8013301 			; <UNDEFINED> instruction: 0xf8013301
 bb8:	fa080003 	blx	200bcc <_Min_Stack_Size+0x2007cc>
 bbc:	02080003 	andeq	r0, r8, #3
 bc0:	0106007d 	tsteq	r6, sp, ror r0
 bc4:	0000052a 	andeq	r0, r0, sl, lsr #10
 bc8:	fc013c01 	stc2	12, cr3, [r1], {1}
 bcc:	fe080003 	cdp2	0, 0, cr0, cr8, cr3, {0}
 bd0:	02080003 	andeq	r0, r8, #3
 bd4:	0106007d 	tsteq	r6, sp, ror r0
 bd8:	00000557 	andeq	r0, r0, r7, asr r5
 bdc:	00014901 	andeq	r4, r1, r1, lsl #18
 be0:	02080004 	andeq	r0, r8, #4
 be4:	02080004 	andeq	r0, r8, #4
 be8:	0106007d 	tsteq	r6, sp, ror r0
 bec:	0000050a 	andeq	r0, r0, sl, lsl #10
 bf0:	04015601 	streq	r5, [r1], #-1537	; 0xfffff9ff
 bf4:	06080004 	streq	r0, [r8], -r4
 bf8:	02080004 	andeq	r0, r8, #4
 bfc:	0106007d 	tsteq	r6, sp, ror r0
 c00:	000004f7 	strdeq	r0, [r0], -r7
 c04:	08016301 	stmdaeq	r1, {r0, r8, r9, sp, lr}
 c08:	0a080004 	beq	200c20 <_Min_Stack_Size+0x200820>
 c0c:	02080004 	andeq	r0, r8, #4
 c10:	0106007d 	tsteq	r6, sp, ror r0
 c14:	00000579 	andeq	r0, r0, r9, ror r5
 c18:	0c017001 	stceq	0, cr7, [r1], {1}
 c1c:	0e080004 	cdpeq	0, 0, cr0, cr8, cr4, {0}
 c20:	02080004 	andeq	r0, r8, #4
 c24:	0106007d 	tsteq	r6, sp, ror r0
 c28:	00000585 	andeq	r0, r0, r5, lsl #11
 c2c:	10017901 	andne	r7, r1, r1, lsl #18
 c30:	12080004 	andne	r0, r8, #4
 c34:	02080004 	andeq	r0, r8, #4
 c38:	0106007d 	tsteq	r6, sp, ror r0
 c3c:	00000548 	andeq	r0, r0, r8, asr #10
 c40:	14018201 	strne	r8, [r1], #-513	; 0xfffffdff
 c44:	16080004 	strne	r0, [r8], -r4
 c48:	02080004 	andeq	r0, r8, #4
 c4c:	0106007d 	tsteq	r6, sp, ror r0
 c50:	00000569 	andeq	r0, r0, r9, ror #10
 c54:	18018b01 	stmdane	r1, {r0, r8, r9, fp, pc}
 c58:	1a080004 	bne	200c70 <_Min_Stack_Size+0x200870>
 c5c:	02080004 	andeq	r0, r8, #4
 c60:	c207007d 	andgt	r0, r7, #125	; 0x7d
 c64:	02000002 	andeq	r0, r0, #2
 c68:	0076051a 	rsbseq	r0, r6, sl, lsl r5
 c6c:	01010000 	mrseq	r0, (UNDEF: 1)
 c70:	0002c207 	andeq	ip, r2, r7, lsl #4
 c74:	051a0200 	ldreq	r0, [sl, #-512]	; 0xfffffe00
 c78:	00000076 	andeq	r0, r0, r6, ror r0
 c7c:	Address 0x00000c7c is out of bounds.


Disassembly of section .debug_line:

00000000 <.debug_line>:
   0:	000001a6 	andeq	r0, r0, r6, lsr #3
   4:	014b0002 	cmpeq	fp, r2
   8:	01020000 	mrseq	r0, (UNDEF: 2)
   c:	000d0efb 	strdeq	r0, [sp], -fp
  10:	01010101 	tsteq	r1, r1, lsl #2
  14:	01000000 	mrseq	r0, (UNDEF: 0)
  18:	2f010000 	svccs	0x00010000
  1c:	656d6f68 	strbvs	r6, [sp, #-3944]!	; 0xfffff098
  20:	64616a2f 	strbtvs	r6, [r1], #-2607	; 0xfffff5d1
  24:	6d2f6469 	cfstrsvs	mvf6, [pc, #-420]!	; fffffe88 <_estack+0xdffdfe88>
  28:	72676f72 	rsbvc	r6, r7, #456	; 0x1c8
  2c:	422f6d61 	eormi	r6, pc, #6208	; 0x1840
  30:	75617265 	strbvc	r7, [r1, #-613]!	; 0xfffffd9b
  34:	3532335f 	ldrcc	r3, [r2, #-863]!	; 0xfffffca1
  38:	72612f30 	rsbvc	r2, r1, #48, 30	; 0xc0
  3c:	30322d6d 	eorscc	r2, r2, sp, ror #26
  40:	302e3131 	eorcc	r3, lr, r1, lsr r1
  44:	69622f33 	stmdbvs	r2!, {r0, r1, r4, r5, r8, r9, sl, fp, sp}^
  48:	2e2e2f6e 	cdpcs	15, 2, cr2, cr14, cr14, {3}
  4c:	62696c2f 	rsbvs	r6, r9, #12032	; 0x2f00
  50:	6363672f 	cmnvs	r3, #12320768	; 0xbc0000
  54:	6d72612f 	ldfvse	f6, [r2, #-188]!	; 0xffffff44
  58:	6e6f6e2d 	cdpvs	14, 6, cr6, cr15, cr13, {1}
  5c:	61652d65 	cmnvs	r5, r5, ror #26
  60:	342f6962 	strtcc	r6, [pc], #-2402	; 68 <_Min_Heap_Size+0x68>
  64:	322e352e 	eorcc	r3, lr, #192937984	; 0xb800000
  68:	2f2e2e2f 	svccs	0x002e2e2f
  6c:	2e2f2e2e 	cdpcs	14, 2, cr2, cr15, cr14, {1}
  70:	2e2e2f2e 	cdpcs	15, 2, cr2, cr14, cr14, {1}
  74:	6d72612f 	ldfvse	f6, [r2, #-188]!	; 0xffffff44
  78:	6e6f6e2d 	cdpvs	14, 6, cr6, cr15, cr13, {1}
  7c:	61652d65 	cmnvs	r5, r5, ror #26
  80:	692f6962 	stmdbvs	pc!, {r1, r5, r6, r8, fp, sp, lr}	; <UNPREDICTABLE>
  84:	756c636e 	strbvc	r6, [ip, #-878]!	; 0xfffffc92
  88:	2e006564 	cfsh32cs	mvfx6, mvfx0, #52
  8c:	2e2e2f2e 	cdpcs	15, 2, cr2, cr14, cr14, {1}
  90:	2f2e2e2f 	svccs	0x002e2e2f
  94:	7262694c 	rsbvc	r6, r2, #76, 18	; 0x130000
  98:	65697261 	strbvs	r7, [r9, #-609]!	; 0xfffffd9f
  9c:	4d432f73 	stclmi	15, cr2, [r3, #-460]	; 0xfffffe34
  a0:	2f534953 	svccs	0x00534953
  a4:	532f5453 	teqpl	pc, #1392508928	; 0x53000000
  a8:	32334d54 	eorscc	r4, r3, #84, 26	; 0x1500
  ac:	78783446 	ldmdavc	r8!, {r1, r2, r6, sl, ip, sp}^
  b0:	636e492f 	cmnvs	lr, #770048	; 0xbc000
  b4:	6564756c 	strbvs	r7, [r4, #-1388]!	; 0xfffffa94
  b8:	2f2e2e00 	svccs	0x002e2e00
  bc:	2e2f2e2e 	cdpcs	14, 2, cr2, cr15, cr14, {1}
  c0:	694c2f2e 	stmdbvs	ip, {r1, r2, r3, r5, r8, r9, sl, fp, sp}^
  c4:	72617262 	rsbvc	r7, r1, #536870918	; 0x20000006
  c8:	2f736569 	svccs	0x00736569
  cc:	334d5453 	movtcc	r5, #54355	; 0xd453
  d0:	78344632 	ldmdavc	r4!, {r1, r4, r5, r9, sl, lr}
  d4:	74535f78 	ldrbvc	r5, [r3], #-3960	; 0xfffff088
  d8:	72655064 	rsbvc	r5, r5, #100	; 0x64
  dc:	5f687069 	svcpl	0x00687069
  e0:	76697244 	strbtvc	r7, [r9], -r4, asr #4
  e4:	692f7265 	stmdbvs	pc!, {r0, r2, r5, r6, r9, ip, sp, lr}	; <UNPREDICTABLE>
  e8:	2e00636e 	cdpcs	3, 0, cr6, cr0, cr14, {3}
  ec:	2e2e2f2e 	cdpcs	15, 2, cr2, cr14, cr14, {1}
  f0:	2f2e2e2f 	svccs	0x002e2e2f
  f4:	7262694c 	rsbvc	r6, r2, #76, 18	; 0x130000
  f8:	65697261 	strbvs	r7, [r9, #-609]!	; 0xfffffd9f
  fc:	4d432f73 	stclmi	15, cr2, [r3, #-460]	; 0xfffffe34
 100:	2f534953 	svccs	0x00534953
 104:	6c636e49 	stclvs	14, cr6, [r3], #-292	; 0xfffffedc
 108:	00656475 	rsbeq	r6, r5, r5, ror r4
 10c:	69616d00 	stmdbvs	r1!, {r8, sl, fp, sp, lr}^
 110:	00632e6e 	rsbeq	r2, r3, lr, ror #28
 114:	73000000 	movwvc	r0, #0
 118:	6e696474 	mcrvs	4, 3, r6, cr9, cr4, {3}
 11c:	00682e74 	rsbeq	r2, r8, r4, ror lr
 120:	73000001 	movwvc	r0, #1
 124:	32336d74 	eorscc	r6, r3, #116, 26	; 0x1d00
 128:	78783466 	ldmdavc	r8!, {r1, r2, r5, r6, sl, ip, sp}^
 12c:	0200682e 	andeq	r6, r0, #3014656	; 0x2e0000
 130:	74730000 	ldrbtvc	r0, [r3], #-0
 134:	6632336d 	ldrtvs	r3, [r2], -sp, ror #6
 138:	5f787834 	svcpl	0x00787834
 13c:	6f697067 	svcvs	0x00697067
 140:	0300682e 	movweq	r6, #2094	; 0x82e
 144:	6f630000 	svcvs	0x00630000
 148:	635f6572 	cmpvs	pc, #478150656	; 0x1c800000
 14c:	682e346d 	stmdavs	lr!, {r0, r2, r3, r5, r6, sl, ip, sp}
 150:	00000400 	andeq	r0, r0, r0, lsl #8
 154:	02050000 	andeq	r0, r5, #0
 158:	080001b8 	stmdaeq	r0, {r3, r4, r5, r7, r8}
 15c:	03013603 	movweq	r3, #5635	; 0x1603
 160:	254d2009 	strbcs	r2, [sp, #-9]
 164:	1f213d1b 	svcne	0x00213d1b
 168:	211d2222 	tstcs	sp, r2, lsr #4
 16c:	02002121 	andeq	r2, r0, #1073741832	; 0x40000008
 170:	03330104 	teqeq	r3, #4, 2
 174:	02006628 	andeq	r6, r0, #40, 12	; 0x2800000
 178:	5e030104 	adfpls	f0, f3, f4
 17c:	6622034a 	strtvs	r0, [r2], -sl, asr #6
 180:	01040200 	mrseq	r0, R12_usr
 184:	034a6403 	movteq	r6, #41987	; 0xa403
 188:	0200661c 	andeq	r6, r0, #28, 12	; 0x1c00000
 18c:	72030104 	andvc	r0, r3, #4, 2
 190:	740e034a 	strvc	r0, [lr], #-842	; 0xfffffcb6
 194:	040200ab 	streq	r0, [r2], #-171	; 0xffffff55
 198:	035b2f01 	cmpeq	fp, #1, 30
 19c:	31153c19 	tstcc	r5, r9, lsl ip
 1a0:	5a214913 	bpl	8525f4 <_Min_Stack_Size+0x8521f4>
 1a4:	0005023a 	andeq	r0, r5, sl, lsr r2
 1a8:	01980101 	orrseq	r0, r8, r1, lsl #2
 1ac:	00020000 	andeq	r0, r2, r0
 1b0:	00000127 	andeq	r0, r0, r7, lsr #2
 1b4:	0efb0102 	cdpeq	1, 15, cr0, cr11, cr2, {0}
 1b8:	0101000d 	tsteq	r1, sp
 1bc:	00000101 	andeq	r0, r0, r1, lsl #2
 1c0:	00000100 	andeq	r0, r0, r0, lsl #2
 1c4:	6f682f01 	svcvs	0x00682f01
 1c8:	6a2f656d 	bvs	bd9784 <_Min_Stack_Size+0xbd9384>
 1cc:	64696461 	strbtvs	r6, [r9], #-1121	; 0xfffffb9f
 1d0:	6f726d2f 	svcvs	0x00726d2f
 1d4:	6d617267 	sfmvs	f7, 2, [r1, #-412]!	; 0xfffffe64
 1d8:	7265422f 	rsbvc	r4, r5, #-268435454	; 0xf0000002
 1dc:	335f7561 	cmpcc	pc, #406847488	; 0x18400000
 1e0:	2f303532 	svccs	0x00303532
 1e4:	2d6d7261 	sfmcs	f7, 2, [sp, #-388]!	; 0xfffffe7c
 1e8:	31313032 	teqcc	r1, r2, lsr r0
 1ec:	2f33302e 	svccs	0x0033302e
 1f0:	2f6e6962 	svccs	0x006e6962
 1f4:	6c2f2e2e 	stcvs	14, cr2, [pc], #-184	; 144 <_Min_Heap_Size+0x144>
 1f8:	672f6269 	strvs	r6, [pc, -r9, ror #4]!
 1fc:	612f6363 	teqvs	pc, r3, ror #6
 200:	6e2d6d72 	mcrvs	13, 1, r6, cr13, cr2, {3}
 204:	2d656e6f 	stclcs	14, cr6, [r5, #-444]!	; 0xfffffe44
 208:	69626165 	stmdbvs	r2!, {r0, r2, r5, r6, r8, sp, lr}^
 20c:	352e342f 	strcc	r3, [lr, #-1071]!	; 0xfffffbd1
 210:	2e2f322e 	cdpcs	2, 2, cr3, cr15, cr14, {1}
 214:	2e2e2f2e 	cdpcs	15, 2, cr2, cr14, cr14, {1}
 218:	2f2e2e2f 	svccs	0x002e2e2f
 21c:	612f2e2e 	teqvs	pc, lr, lsr #28
 220:	6e2d6d72 	mcrvs	13, 1, r6, cr13, cr2, {3}
 224:	2d656e6f 	stclcs	14, cr6, [r5, #-444]!	; 0xfffffe44
 228:	69626165 	stmdbvs	r2!, {r0, r2, r5, r6, r8, sp, lr}^
 22c:	636e692f 	cmnvs	lr, #770048	; 0xbc000
 230:	6564756c 	strbvs	r7, [r4, #-1388]!	; 0xfffffa94
 234:	2f2e2e00 	svccs	0x002e2e00
 238:	2e2f2e2e 	cdpcs	14, 2, cr2, cr15, cr14, {1}
 23c:	694c2f2e 	stmdbvs	ip, {r1, r2, r3, r5, r8, r9, sl, fp, sp}^
 240:	72617262 	rsbvc	r7, r1, #536870918	; 0x20000006
 244:	2f736569 	svccs	0x00736569
 248:	49534d43 	ldmdbmi	r3, {r0, r1, r6, r8, sl, fp, lr}^
 24c:	6e492f53 	mcrvs	15, 2, r2, cr9, cr3, {2}
 250:	64756c63 	ldrbtvs	r6, [r5], #-3171	; 0xfffff39d
 254:	2e2e0065 	cdpcs	0, 2, cr0, cr14, cr5, {3}
 258:	2f2e2e2f 	svccs	0x002e2e2f
 25c:	4c2f2e2e 	stcmi	14, cr2, [pc], #-184	; 1ac <_Min_Heap_Size+0x1ac>
 260:	61726269 	cmnvs	r2, r9, ror #4
 264:	73656972 	cmnvc	r5, #1867776	; 0x1c8000
 268:	534d432f 	movtpl	r4, #54063	; 0xd32f
 26c:	532f5349 	teqpl	pc, #603979777	; 0x24000001
 270:	54532f54 	ldrbpl	r2, [r3], #-3924	; 0xfffff0ac
 274:	4632334d 	ldrtmi	r3, [r2], -sp, asr #6
 278:	2f787834 	svccs	0x00787834
 27c:	6c636e49 	stclvs	14, cr6, [r3], #-292	; 0xfffffedc
 280:	00656475 	rsbeq	r6, r5, r5, ror r4
 284:	73797300 	cmnvc	r9, #0, 6
 288:	5f6d6574 	svcpl	0x006d6574
 28c:	336d7473 	cmncc	sp, #1929379840	; 0x73000000
 290:	78346632 	ldmdavc	r4!, {r1, r4, r5, r9, sl, sp, lr}
 294:	00632e78 	rsbeq	r2, r3, r8, ror lr
 298:	73000000 	movwvc	r0, #0
 29c:	6e696474 	mcrvs	4, 3, r6, cr9, cr4, {3}
 2a0:	00682e74 	rsbeq	r2, r8, r4, ror lr
 2a4:	63000001 	movwvs	r0, #1
 2a8:	5f65726f 	svcpl	0x0065726f
 2ac:	2e346d63 	cdpcs	13, 3, cr6, cr4, cr3, {3}
 2b0:	00020068 	andeq	r0, r2, r8, rrx
 2b4:	6d747300 	ldclvs	3, cr7, [r4, #-0]
 2b8:	34663233 	strbtcc	r3, [r6], #-563	; 0xfffffdcd
 2bc:	682e7878 	stmdavs	lr!, {r3, r4, r5, r6, fp, ip, sp, lr}
 2c0:	00000300 	andeq	r0, r0, r0, lsl #6
 2c4:	74737973 	ldrbtvc	r7, [r3], #-2419	; 0xfffff68d
 2c8:	735f6d65 	cmpvc	pc, #6464	; 0x1940
 2cc:	32336d74 	eorscc	r6, r3, #116, 26	; 0x1d00
 2d0:	78783466 	ldmdavc	r8!, {r1, r2, r5, r6, sl, ip, sp}^
 2d4:	0300682e 	movweq	r6, #2094	; 0x82e
 2d8:	00000000 	andeq	r0, r0, r0
 2dc:	027c0205 	rsbseq	r0, ip, #1342177280	; 0x50000000
 2e0:	cc030800 	stcgt	8, cr0, [r3], {-0}
 2e4:	31150101 	tstcc	r5, r1, lsl #2
 2e8:	3f233f1d 	svccc	0x00233f1d
 2ec:	03233f1d 	teqeq	r3, #29, 30	; 0x74
 2f0:	0f032071 	svceq	0x00032071
 2f4:	f3033f20 	vpmax.f32	d3, d3, d16
 2f8:	4f312000 	svcmi	0x00312000
 2fc:	3d4b4830 	stclcc	8, cr4, [fp, #-192]	; 0xffffff40
 300:	03355a3e 	teqeq	r5, #253952	; 0x3e000
 304:	4c3c7f86 	ldcmi	15, cr7, [ip], #-536	; 0xfffffde8
 308:	2e00f503 	cfsh32cs	mvfx15, mvfx0, #3
 30c:	1f213f23 	svcne	0x00213f23
 310:	4d314d4b 	ldcmi	13, cr4, [r1, #-300]!	; 0xfffffed4
 314:	243f1d23 	ldrtcs	r1, [pc], #-3363	; 31c <_Min_Heap_Size+0x31c>
 318:	4b4d6b4d 	blmi	135b054 <_Min_Stack_Size+0x135ac54>
 31c:	7f8c034d 	svcvc	0x008c034d
 320:	4c162e08 	ldcmi	14, cr2, [r6], {8}
 324:	76582403 	ldrbvc	r2, [r8], -r3, lsl #8
 328:	2060032f 	rsbcs	r0, r0, pc, lsr #6
 32c:	1d252134 	stfnes	f2, [r5, #-208]!	; 0xffffff30
 330:	76033331 			; <UNDEFINED> instruction: 0x76033331
 334:	2e0a0320 	cdpcs	3, 0, cr0, cr10, cr0, {1}
 338:	20780331 	rsbscs	r0, r8, r1, lsr r3
 33c:	21314736 	teqcs	r1, r6, lsr r7
 340:	0009022f 	andeq	r0, r9, pc, lsr #4
 344:	00a50101 	adceq	r0, r5, r1, lsl #2
 348:	00020000 	andeq	r0, r2, r0
 34c:	0000006b 	andeq	r0, r0, fp, rrx
 350:	0efb0102 	cdpeq	1, 15, cr0, cr11, cr2, {0}
 354:	0101000d 	tsteq	r1, sp
 358:	00000101 	andeq	r0, r0, r1, lsl #2
 35c:	00000100 	andeq	r0, r0, r0, lsl #2
 360:	2f2e2e01 	svccs	0x002e2e01
 364:	2e2f2e2e 	cdpcs	14, 2, cr2, cr15, cr14, {1}
 368:	694c2f2e 	stmdbvs	ip, {r1, r2, r3, r5, r8, r9, sl, fp, sp}^
 36c:	72617262 	rsbvc	r7, r1, #536870918	; 0x20000006
 370:	2f736569 	svccs	0x00736569
 374:	49534d43 	ldmdbmi	r3, {r0, r1, r6, r8, sl, fp, lr}^
 378:	54532f53 	ldrbpl	r2, [r3], #-3923	; 0xfffff0ad
 37c:	4d54532f 	ldclmi	3, cr5, [r4, #-188]	; 0xffffff44
 380:	34463233 	strbcc	r3, [r6], #-563	; 0xfffffdcd
 384:	532f7878 	teqpl	pc, #120, 16	; 0x780000
 388:	6372756f 	cmnvs	r2, #465567744	; 0x1bc00000
 38c:	65542f65 	ldrbvs	r2, [r4, #-3941]	; 0xfffff09b
 390:	616c706d 	cmnvs	ip, sp, rrx
 394:	2f736574 	svccs	0x00736574
 398:	5f636367 	svcpl	0x00636367
 39c:	65646972 	strbvs	r6, [r4, #-2418]!	; 0xfffff68e
 3a0:	73000037 	movwvc	r0, #55	; 0x37
 3a4:	74726174 	ldrbtvc	r6, [r2], #-372	; 0xfffffe8c
 3a8:	735f7075 	cmpvc	pc, #117	; 0x75
 3ac:	32336d74 	eorscc	r6, r3, #116, 26	; 0x1d00
 3b0:	78783466 	ldmdavc	r8!, {r1, r2, r5, r6, sl, ip, sp}^
 3b4:	0100732e 	tsteq	r0, lr, lsr #6
 3b8:	00000000 	andeq	r0, r0, r0
 3bc:	2b140205 	blcs	500bd8 <_Min_Stack_Size+0x5007d8>
 3c0:	c4030800 	strgt	r0, [r3], #-2048	; 0xfffff800
 3c4:	23210100 	teqcs	r1, #0, 2
 3c8:	23212121 	teqcs	r1, #1073741832	; 0x40000008
 3cc:	21212121 	teqcs	r1, r1, lsr #2
 3d0:	21232121 	teqcs	r3, r1, lsr #2
 3d4:	23212131 	teqcs	r1, #1073741836	; 0x4000000c
 3d8:	0b022f30 	bleq	8c0a0 <_Min_Stack_Size+0x8bca0>
 3dc:	00010100 	andeq	r0, r1, r0, lsl #2
 3e0:	2b580205 	blcs	1600bfc <_Min_Stack_Size+0x16007fc>
 3e4:	f0030800 			; <UNDEFINED> instruction: 0xf0030800
 3e8:	01020100 	mrseq	r0, (UNDEF: 18)
 3ec:	fa010100 	blx	407f4 <_Min_Stack_Size+0x403f4>
 3f0:	02000000 	andeq	r0, r0, #0
 3f4:	0000d000 	andeq	sp, r0, r0
 3f8:	fb010200 	blx	40c02 <_Min_Stack_Size+0x40802>
 3fc:	01000d0e 	tsteq	r0, lr, lsl #26
 400:	00010101 	andeq	r0, r1, r1, lsl #2
 404:	00010000 	andeq	r0, r1, r0
 408:	2e2e0100 	sufcse	f0, f6, f0
 40c:	2f2e2e2f 	svccs	0x002e2e2f
 410:	4c2f2e2e 	stcmi	14, cr2, [pc], #-184	; 360 <_Min_Heap_Size+0x360>
 414:	61726269 	cmnvs	r2, r9, ror #4
 418:	73656972 	cmnvc	r5, #1867776	; 0x1c8000
 41c:	534d432f 	movtpl	r4, #54063	; 0xd32f
 420:	492f5349 	stmdbmi	pc!, {r0, r3, r6, r8, r9, ip, lr}	; <UNPREDICTABLE>
 424:	756c636e 	strbvc	r6, [ip, #-878]!	; 0xfffffc92
 428:	2f006564 	svccs	0x00006564
 42c:	656d6f68 	strbvs	r6, [sp, #-3944]!	; 0xfffff098
 430:	64616a2f 	strbtvs	r6, [r1], #-2607	; 0xfffff5d1
 434:	6d2f6469 	cfstrsvs	mvf6, [pc, #-420]!	; 298 <_Min_Heap_Size+0x298>
 438:	72676f72 	rsbvc	r6, r7, #456	; 0x1c8
 43c:	422f6d61 	eormi	r6, pc, #6208	; 0x1840
 440:	75617265 	strbvc	r7, [r1, #-613]!	; 0xfffffd9b
 444:	3532335f 	ldrcc	r3, [r2, #-863]!	; 0xfffffca1
 448:	72612f30 	rsbvc	r2, r1, #48, 30	; 0xc0
 44c:	30322d6d 	eorscc	r2, r2, sp, ror #26
 450:	302e3131 	eorcc	r3, lr, r1, lsr r1
 454:	69622f33 	stmdbvs	r2!, {r0, r1, r4, r5, r8, r9, sl, fp, sp}^
 458:	2e2e2f6e 	cdpcs	15, 2, cr2, cr14, cr14, {3}
 45c:	62696c2f 	rsbvs	r6, r9, #12032	; 0x2f00
 460:	6363672f 	cmnvs	r3, #12320768	; 0xbc0000
 464:	6d72612f 	ldfvse	f6, [r2, #-188]!	; 0xffffff44
 468:	6e6f6e2d 	cdpvs	14, 6, cr6, cr15, cr13, {1}
 46c:	61652d65 	cmnvs	r5, r5, ror #26
 470:	342f6962 	strtcc	r6, [pc], #-2402	; 478 <_Min_Stack_Size+0x78>
 474:	322e352e 	eorcc	r3, lr, #192937984	; 0xb800000
 478:	2f2e2e2f 	svccs	0x002e2e2f
 47c:	2e2f2e2e 	cdpcs	14, 2, cr2, cr15, cr14, {1}
 480:	2e2e2f2e 	cdpcs	15, 2, cr2, cr14, cr14, {1}
 484:	6d72612f 	ldfvse	f6, [r2, #-188]!	; 0xffffff44
 488:	6e6f6e2d 	cdpvs	14, 6, cr6, cr15, cr13, {1}
 48c:	61652d65 	cmnvs	r5, r5, ror #26
 490:	692f6962 	stmdbvs	pc!, {r1, r5, r6, r8, fp, sp, lr}	; <UNPREDICTABLE>
 494:	756c636e 	strbvc	r6, [ip, #-878]!	; 0xfffffc92
 498:	00006564 	andeq	r6, r0, r4, ror #10
 49c:	336d7473 	cmncc	sp, #1929379840	; 0x73000000
 4a0:	78346632 	ldmdavc	r4!, {r1, r4, r5, r9, sl, sp, lr}
 4a4:	74695f78 	strbtvc	r5, [r9], #-3960	; 0xfffff088
 4a8:	0000632e 	andeq	r6, r0, lr, lsr #6
 4ac:	6f630000 	svcvs	0x00630000
 4b0:	635f6572 	cmpvs	pc, #478150656	; 0x1c800000
 4b4:	682e346d 	stmdavs	lr!, {r0, r2, r3, r5, r6, sl, ip, sp}
 4b8:	00000100 	andeq	r0, r0, r0, lsl #2
 4bc:	69647473 	stmdbvs	r4!, {r0, r1, r4, r5, r6, sl, ip, sp, lr}^
 4c0:	682e746e 	stmdavs	lr!, {r1, r2, r3, r5, r6, sl, ip, sp, lr}
 4c4:	00000200 	andeq	r0, r0, r0, lsl #4
 4c8:	02050000 	andeq	r0, r5, #0
 4cc:	080003f8 	stmdaeq	r0, {r3, r4, r5, r6, r7, r8, r9}
 4d0:	13013303 	movwne	r3, #4867	; 0x1303
 4d4:	2e0d0336 	mcrcs	3, 0, r0, cr13, cr6, {1}
 4d8:	032e0d03 	teqeq	lr, #3, 26	; 0xc0
 4dc:	0d032e0d 	stceq	14, cr2, [r3, #-52]	; 0xffffffcc
 4e0:	1336132e 	teqne	r6, #-1207959552	; 0xb8000000
 4e4:	13361336 	teqne	r6, #-671088640	; 0xd8000000
 4e8:	01000102 	tsteq	r0, r2, lsl #2
 4ec:	Address 0x000004ec is out of bounds.


Disassembly of section .debug_loc:

00000000 <.debug_loc>:
   0:	00000000 	andeq	r0, r0, r0
   4:	00000002 	andeq	r0, r0, r2
   8:	007d0002 	rsbseq	r0, sp, r2
   c:	00000002 	andeq	r0, r0, r2
  10:	00000088 	andeq	r0, r0, r8, lsl #1
  14:	087d0002 	ldmdaeq	sp!, {r1}^
	...
  20:	00000034 	andeq	r0, r0, r4, lsr r0
  24:	00000038 	andeq	r0, r0, r8, lsr r0
  28:	00520001 	subseq	r0, r2, r1
  2c:	00000000 	andeq	r0, r0, r0
  30:	48000000 	stmdami	r0, {}	; <UNPREDICTABLE>
  34:	4c000000 	stcmi	0, cr0, [r0], {-0}
  38:	01000000 	mrseq	r0, (UNDEF: 0)
  3c:	00005200 	andeq	r5, r0, r0, lsl #4
  40:	00000000 	andeq	r0, r0, r0
  44:	005c0000 	subseq	r0, ip, r0
  48:	00600000 	rsbeq	r0, r0, r0
  4c:	00010000 	andeq	r0, r1, r0
  50:	00000052 	andeq	r0, r0, r2, asr r0
  54:	00000000 	andeq	r0, r0, r0
  58:	00007200 	andeq	r7, r0, r0, lsl #4
  5c:	00007600 	andeq	r7, r0, r0, lsl #12
  60:	52000100 	andpl	r0, r0, #0, 2
	...
  6c:	00000088 	andeq	r0, r0, r8, lsl #1
  70:	0000008a 	andeq	r0, r0, sl, lsl #1
  74:	007d0002 	rsbseq	r0, sp, r2
  78:	0000008a 	andeq	r0, r0, sl, lsl #1
  7c:	0000009a 	muleq	r0, sl, r0
  80:	087d0002 	ldmdaeq	sp!, {r1}^
	...
  8c:	00000088 	andeq	r0, r0, r8, lsl #1
  90:	00000090 	muleq	r0, r0, r0
  94:	92500001 	subsls	r0, r0, #1
  98:	9a000000 	bls	a0 <_Min_Heap_Size+0xa0>
  9c:	01000000 	mrseq	r0, (UNDEF: 0)
  a0:	00005200 	andeq	r5, r0, r0, lsl #4
  a4:	00000000 	andeq	r0, r0, r0
  a8:	00a00000 	adceq	r0, r0, r0
  ac:	00aa0000 	adceq	r0, sl, r0
  b0:	00020000 	andeq	r0, r2, r0
  b4:	00aa007d 	adceq	r0, sl, sp, ror r0
  b8:	00c40000 	sbceq	r0, r4, r0
  bc:	00020000 	andeq	r0, r2, r0
  c0:	0000087d 	andeq	r0, r0, sp, ror r8
  c4:	00000000 	andeq	r0, r0, r0
  c8:	00a00000 	adceq	r0, r0, r0
  cc:	00b40000 	adcseq	r0, r4, r0
  d0:	00010000 	andeq	r0, r1, r0
  d4:	0000ba50 	andeq	fp, r0, r0, asr sl
  d8:	0000bd00 	andeq	fp, r0, r0, lsl #26
  dc:	50000100 	andpl	r0, r0, r0, lsl #2
	...
  ec:	00000022 	andeq	r0, r0, r2, lsr #32
  f0:	007d0002 	rsbseq	r0, sp, r2
  f4:	00000022 	andeq	r0, r0, r2, lsr #32
  f8:	000000fc 	strdeq	r0, [r0], -ip
  fc:	087d0002 	ldmdaeq	sp!, {r1}^
	...
 108:	000000fc 	strdeq	r0, [r0], -ip
 10c:	00000100 	andeq	r0, r0, r0, lsl #2
 110:	9f300002 	svcls	0x00300002
 114:	00000100 	andeq	r0, r0, r0, lsl #2
 118:	00000104 	andeq	r0, r0, r4, lsl #2
 11c:	00720005 	rsbseq	r0, r2, r5
 120:	049f1a3c 	ldreq	r1, [pc], #2620	; 128 <_Min_Heap_Size+0x128>
 124:	0e000001 	cdpeq	0, 0, cr0, cr0, cr1, {0}
 128:	01000001 	tsteq	r0, r1
 12c:	01225200 	teqeq	r2, r0, lsl #4
 130:	01240000 	teqeq	r4, r0
 134:	00010000 	andeq	r0, r1, r0
 138:	00012652 	andeq	r2, r1, r2, asr r6
 13c:	00013400 	andeq	r3, r1, r0, lsl #8
 140:	52000100 	andpl	r0, r0, #0, 2
	...
 14c:	000000fc 	strdeq	r0, [r0], -ip
 150:	0000010e 	andeq	r0, r0, lr, lsl #2
 154:	9f300002 	svcls	0x00300002
 158:	00000122 	andeq	r0, r0, r2, lsr #2
 15c:	00000150 	andeq	r0, r0, r0, asr r1
 160:	9f300002 	svcls	0x00300002
 164:	00000150 	andeq	r0, r0, r0, asr r1
 168:	00000168 	andeq	r0, r0, r8, ror #2
 16c:	00500001 	subseq	r0, r0, r1
 170:	00000000 	andeq	r0, r0, r0
 174:	fc000000 	stc2	0, cr0, [r0], {-0}
 178:	0e000000 	cdpeq	0, 0, cr0, cr0, cr0, {0}
 17c:	02000001 	andeq	r0, r0, #1
 180:	229f3200 	addscs	r3, pc, #0, 4
 184:	50000001 	andpl	r0, r0, r1
 188:	02000001 	andeq	r0, r0, #1
 18c:	509f3200 	addspl	r3, pc, r0, lsl #4
 190:	52000001 	andpl	r0, r0, #1
 194:	0f000001 	svceq	0x00000001
 198:	0c007300 	stceq	3, cr7, [r0], {-0}
 19c:	00030000 	andeq	r0, r3, r0
 1a0:	2325401a 	teqcs	r5, #26
 1a4:	9f243101 	svcls	0x00243101
	...
 1b0:	000000fc 	strdeq	r0, [r0], -ip
 1b4:	0000010e 	andeq	r0, r0, lr, lsl #2
 1b8:	9f300002 	svcls	0x00300002
 1bc:	00000122 	andeq	r0, r0, r2, lsr #2
 1c0:	00000128 	andeq	r0, r0, r8, lsr #2
 1c4:	9f300002 	svcls	0x00300002
 1c8:	00000128 	andeq	r0, r0, r8, lsr #2
 1cc:	00000144 	andeq	r0, r0, r4, asr #2
 1d0:	0070000b 	rsbseq	r0, r0, fp
 1d4:	4000000c 	andmi	r0, r0, ip
 1d8:	25461a00 	strbcs	r1, [r6, #-2560]	; 0xfffff600
 1dc:	0000009f 	muleq	r0, pc, r0	; <UNPREDICTABLE>
 1e0:	00000000 	andeq	r0, r0, r0
 1e4:	0000fc00 	andeq	pc, r0, r0, lsl #24
 1e8:	00010e00 	andeq	r0, r1, r0, lsl #28
 1ec:	32000200 	andcc	r0, r0, #0, 4
 1f0:	0001229f 	muleq	r1, pc, r2	; <UNPREDICTABLE>
 1f4:	00013a00 	andeq	r3, r1, r0, lsl #20
 1f8:	32000200 	andcc	r0, r0, #0, 4
 1fc:	00013a9f 	muleq	r1, pc, sl	; <UNPREDICTABLE>
 200:	00014000 	andeq	r4, r1, r0
 204:	51000100 	mrspl	r0, (UNDEF: 16)
	...

Disassembly of section .debug_pubnames:

00000000 <.debug_pubnames>:
   0:	00000052 	andeq	r0, r0, r2, asr r0
   4:	00000002 	andeq	r0, r0, r2
   8:	03f90000 	mvnseq	r0, #0
   c:	02bd0000 	adcseq	r0, sp, #0
  10:	616d0000 	cmnvs	sp, r0
  14:	6c006e69 	stcvs	14, cr6, [r0], {105}	; 0x69
  18:	44000003 	strmi	r0, [r0], #-3
  1c:	79616c65 	stmdbvc	r1!, {r0, r2, r5, r6, sl, fp, sp, lr}^
  20:	00038b00 	andeq	r8, r3, r0, lsl #22
  24:	73736100 	cmnvc	r3, #0, 2
  28:	5f747265 	svcpl	0x00747265
  2c:	61726170 	cmnvs	r2, r0, ror r1
  30:	039e006d 	orrseq	r0, lr, #109	; 0x6d
  34:	6b610000 	blvs	184003c <_Min_Stack_Size+0x183fc3c>
  38:	e6007261 	str	r7, [r0], -r1, ror #4
  3c:	47000003 	strmi	r0, [r0, -r3]
  40:	5f4f4950 	svcpl	0x004f4950
  44:	74696e49 	strbtvc	r6, [r9], #-3657	; 0xfffff1b7
  48:	75727453 	ldrbvc	r7, [r2, #-1107]!	; 0xfffffbad
  4c:	72757463 	rsbsvc	r7, r5, #1660944384	; 0x63000000
  50:	00000065 	andeq	r0, r0, r5, rrx
  54:	005d0000 	subseq	r0, sp, r0
  58:	00020000 	andeq	r0, r2, r0
  5c:	000003f9 	strdeq	r0, [r0], -r9
  60:	0000063b 	andeq	r0, r0, fp, lsr r6
  64:	00000512 	andeq	r0, r0, r2, lsl r5
  68:	74737953 	ldrbtvc	r7, [r3], #-2387	; 0xfffff6ad
  6c:	6e496d65 	cdpvs	13, 4, cr6, cr9, cr5, {3}
  70:	52007469 	andpl	r7, r0, #1761607680	; 0x69000000
  74:	53000005 	movwpl	r0, #5
  78:	65747379 	ldrbvs	r7, [r4, #-889]!	; 0xfffffc87
  7c:	726f436d 	rsbvc	r4, pc, #-1275068415	; 0xb4000001
  80:	6f6c4365 	svcvs	0x006c4365
  84:	70556b63 	subsvc	r6, r5, r3, ror #22
  88:	65746164 	ldrbvs	r6, [r4, #-356]!	; 0xfffffe9c
  8c:	00060c00 	andeq	r0, r6, r0, lsl #24
  90:	73795300 	cmnvc	r9, #0, 6
  94:	436d6574 	cmnmi	sp, #116, 10	; 0x1d000000
  98:	4365726f 	cmnmi	r5, #-268435450	; 0xf0000006
  9c:	6b636f6c 	blvs	18dbe54 <_Min_Stack_Size+0x18dba54>
  a0:	00061e00 	andeq	r1, r6, r0, lsl #28
  a4:	42484100 	submi	r4, r8, #0, 2
  a8:	73657250 	cmnvc	r5, #80, 4
  ac:	62615463 	rsbvs	r5, r1, #1660944384	; 0x63000000
  b0:	0000656c 	andeq	r6, r0, ip, ror #10
  b4:	c2000000 	andgt	r0, r0, #0
  b8:	02000000 	andeq	r0, r0, #0
  bc:	000b3300 	andeq	r3, fp, r0, lsl #6
  c0:	00014c00 	andeq	r4, r1, r0, lsl #24
  c4:	00007b00 	andeq	r7, r0, r0, lsl #22
  c8:	494d4e00 	stmdbmi	sp, {r9, sl, fp, lr}^
  cc:	6e61485f 	mcrvs	8, 3, r4, cr1, cr15, {2}
  d0:	72656c64 	rsbvc	r6, r5, #100, 24	; 0x6400
  d4:	00008f00 	andeq	r8, r0, r0, lsl #30
  d8:	72614800 	rsbvc	r4, r1, #0, 16
  dc:	75614664 	strbvc	r4, [r1, #-1636]!	; 0xfffff99c
  e0:	485f746c 	ldmdami	pc, {r2, r3, r5, r6, sl, ip, sp, lr}^	; <UNPREDICTABLE>
  e4:	6c646e61 	stclvs	14, cr6, [r4], #-388	; 0xfffffe7c
  e8:	a3007265 	movwge	r7, #613	; 0x265
  ec:	4d000000 	stcmi	0, cr0, [r0, #-0]
  f0:	614d6d65 	cmpvs	sp, r5, ror #26
  f4:	6567616e 	strbvs	r6, [r7, #-366]!	; 0xfffffe92
  f8:	6e61485f 	mcrvs	8, 3, r4, cr1, cr15, {2}
  fc:	72656c64 	rsbvc	r6, r5, #100, 24	; 0x6400
 100:	0000b700 	andeq	fp, r0, r0, lsl #14
 104:	73754200 	cmnvc	r5, #0, 4
 108:	6c756146 	ldfvse	f6, [r5], #-280	; 0xfffffee8
 10c:	61485f74 	hvcvs	34292	; 0x85f4
 110:	656c646e 	strbvs	r6, [ip, #-1134]!	; 0xfffffb92
 114:	00cb0072 	sbceq	r0, fp, r2, ror r0
 118:	73550000 	cmpvc	r5, #0
 11c:	46656761 	strbtmi	r6, [r5], -r1, ror #14
 120:	746c7561 	strbtvc	r7, [ip], #-1377	; 0xfffffa9f
 124:	6e61485f 	mcrvs	8, 3, r4, cr1, cr15, {2}
 128:	72656c64 	rsbvc	r6, r5, #100, 24	; 0x6400
 12c:	0000df00 	andeq	sp, r0, r0, lsl #30
 130:	43565300 	cmpmi	r6, #0, 6
 134:	6e61485f 	mcrvs	8, 3, r4, cr1, cr15, {2}
 138:	72656c64 	rsbvc	r6, r5, #100, 24	; 0x6400
 13c:	0000f300 	andeq	pc, r0, r0, lsl #6
 140:	62654400 	rsbvs	r4, r5, #0, 8
 144:	6f4d6775 	svcvs	0x004d6775
 148:	61485f6e 	cmpvs	r8, lr, ror #30
 14c:	656c646e 	strbvs	r6, [ip, #-1134]!	; 0xfffffb92
 150:	01070072 	tsteq	r7, r2, ror r0
 154:	65500000 	ldrbvs	r0, [r0, #-0]
 158:	5653646e 	ldrbpl	r6, [r3], -lr, ror #8
 15c:	6e61485f 	mcrvs	8, 3, r4, cr1, cr15, {2}
 160:	72656c64 	rsbvc	r6, r5, #100, 24	; 0x6400
 164:	00011b00 	andeq	r1, r1, r0, lsl #22
 168:	73795300 	cmnvc	r9, #0, 6
 16c:	6b636954 	blvs	18da6c4 <_Min_Stack_Size+0x18da2c4>
 170:	6e61485f 	mcrvs	8, 3, r4, cr1, cr15, {2}
 174:	72656c64 	rsbvc	r6, r5, #100, 24	; 0x6400
 178:	00000000 	andeq	r0, r0, r0
	...

Disassembly of section .debug_pubtypes:

00000000 <.debug_pubtypes>:
   0:	000000b0 	strheq	r0, [r0], -r0	; <UNPREDICTABLE>
   4:	00000002 	andeq	r0, r0, r2
   8:	03f90000 	mvnseq	r0, #0
   c:	003a0000 	eorseq	r0, sl, r0
  10:	69750000 	ldmdbvs	r5!, {}^	; <UNPREDICTABLE>
  14:	3631746e 	ldrtcc	r7, [r1], -lr, ror #8
  18:	4c00745f 	cfstrsmi	mvf7, [r0], {95}	; 0x5f
  1c:	69000000 	stmdbvs	r0, {}	; <UNPREDICTABLE>
  20:	3233746e 	eorscc	r7, r3, #1845493760	; 0x6e000000
  24:	5e00745f 	cfmvsrpl	mvf0, r7
  28:	75000000 	strvc	r0, [r0, #-0]
  2c:	33746e69 	cmncc	r4, #1680	; 0x690
  30:	00745f32 	rsbseq	r5, r4, r2, lsr pc
  34:	00000166 	andeq	r0, r0, r6, ror #2
  38:	4f495047 	svcmi	0x00495047
  3c:	7079545f 	rsbsvc	r5, r9, pc, asr r4
  40:	66654465 	strbtvs	r4, [r5], -r5, ror #8
  44:	00019300 	andeq	r9, r1, r0, lsl #6
  48:	49504700 	ldmdbmi	r0, {r8, r9, sl, lr}^
  4c:	646f4d4f 	strbtvs	r4, [pc], #-3407	; 54 <_Min_Heap_Size+0x54>
  50:	79545f65 	ldmdbvc	r4, {r0, r2, r5, r6, r8, r9, sl, fp, ip, lr}^
  54:	65446570 	strbvs	r6, [r4, #-1392]	; 0xfffffa90
  58:	01b30066 			; <UNDEFINED> instruction: 0x01b30066
  5c:	50470000 	subpl	r0, r7, r0
  60:	544f4f49 	strbpl	r4, [pc], #-3913	; 68 <_Min_Heap_Size+0x68>
  64:	5f657079 	svcpl	0x00657079
  68:	65707954 	ldrbvs	r7, [r0, #-2388]!	; 0xfffff6ac
  6c:	00666544 	rsbeq	r6, r6, r4, asr #10
  70:	000001df 	ldrdeq	r0, [r0], -pc	; <UNPREDICTABLE>
  74:	4f495047 	svcmi	0x00495047
  78:	65657053 	strbvs	r7, [r5, #-83]!	; 0xffffffad
  7c:	79545f64 	ldmdbvc	r4, {r2, r5, r6, r8, r9, sl, fp, ip, lr}^
  80:	65446570 	strbvs	r6, [r4, #-1392]	; 0xfffffa90
  84:	02050066 	andeq	r0, r5, #102	; 0x66
  88:	50470000 	subpl	r0, r7, r0
  8c:	75504f49 	ldrbvc	r4, [r0, #-3913]	; 0xfffff0b7
  90:	545f6450 	ldrbpl	r6, [pc], #-1104	; 98 <_Min_Heap_Size+0x98>
  94:	44657079 	strbtmi	r7, [r5], #-121	; 0xffffff87
  98:	5f006665 	svcpl	0x00006665
  9c:	47000002 	strmi	r0, [r0, -r2]
  a0:	5f4f4950 	svcpl	0x004f4950
  a4:	74696e49 	strbtvc	r6, [r9], #-3657	; 0xfffff1b7
  a8:	65707954 	ldrbvs	r7, [r0, #-2388]!	; 0xfffff6ac
  ac:	00666544 	rsbeq	r6, r6, r4, asr #10
  b0:	00000000 	andeq	r0, r0, r0
  b4:	0000007f 	andeq	r0, r0, pc, ror r0
  b8:	03f90002 	mvnseq	r0, #2
  bc:	063b0000 	ldrteq	r0, [fp], -r0
  c0:	002c0000 	eoreq	r0, ip, r0
  c4:	69750000 	ldmdbvs	r5!, {}^	; <UNPREDICTABLE>
  c8:	5f38746e 	svcpl	0x0038746e
  cc:	00450074 	subeq	r0, r5, r4, ror r0
  d0:	69750000 	ldmdbvs	r5!, {}^	; <UNPREDICTABLE>
  d4:	3631746e 	ldrtcc	r7, [r1], -lr, ror #8
  d8:	5700745f 	smlsdpl	r0, pc, r4, r7	; <UNPREDICTABLE>
  dc:	69000000 	stmdbvs	r0, {}	; <UNPREDICTABLE>
  e0:	3233746e 	eorscc	r7, r3, #1845493760	; 0x6e000000
  e4:	6900745f 	stmdbvs	r0, {r0, r1, r2, r3, r4, r6, sl, ip, sp, lr}
  e8:	75000000 	strvc	r0, [r0, #-0]
  ec:	33746e69 	cmncc	r4, #1680	; 0x690
  f0:	00745f32 	rsbseq	r5, r4, r2, lsr pc
  f4:	0000024a 	andeq	r0, r0, sl, asr #4
  f8:	5f424353 	svcpl	0x00424353
  fc:	65707954 	ldrbvs	r7, [r0, #-2388]!	; 0xfffff6ac
 100:	0002d300 	andeq	sp, r2, r0, lsl #6
 104:	414c4600 	cmpmi	ip, r0, lsl #12
 108:	545f4853 	ldrbpl	r4, [pc], #-2131	; 110 <_Min_Heap_Size+0x110>
 10c:	44657079 	strbtmi	r7, [r5], #-121	; 0xffffff87
 110:	06006665 	streq	r6, [r0], -r5, ror #12
 114:	50000003 	andpl	r0, r0, r3
 118:	545f5257 	ldrbpl	r5, [pc], #-599	; 120 <_Min_Heap_Size+0x120>
 11c:	44657079 	strbtmi	r7, [r5], #-121	; 0xffffff87
 120:	df006665 	svcle	0x00006665
 124:	52000004 	andpl	r0, r0, #4
 128:	545f4343 	ldrbpl	r4, [pc], #-835	; 130 <_Min_Heap_Size+0x130>
 12c:	44657079 	strbtmi	r7, [r5], #-121	; 0xffffff87
 130:	00006665 	andeq	r6, r0, r5, ror #12
 134:	1a000000 	bne	13c <_Min_Heap_Size+0x13c>
 138:	02000000 	andeq	r0, r0, #0
 13c:	000b3300 	andeq	r3, fp, r0, lsl #6
 140:	00014c00 	andeq	r4, r1, r0, lsl #24
 144:	00004100 	andeq	r4, r0, r0, lsl #2
 148:	746e6900 	strbtvc	r6, [lr], #-2304	; 0xfffff700
 14c:	745f3233 	ldrbvc	r3, [pc], #-563	; 154 <_Min_Heap_Size+0x154>
 150:	00000000 	andeq	r0, r0, r0
	...

Disassembly of section .debug_aranges:

00000000 <.debug_aranges>:
   0:	0000001c 	andeq	r0, r0, ip, lsl r0
   4:	00000002 	andeq	r0, r0, r2
   8:	00040000 	andeq	r0, r4, r0
   c:	00000000 	andeq	r0, r0, r0
  10:	080001b8 	stmdaeq	r0, {r3, r4, r5, r7, r8}
  14:	000000c4 	andeq	r0, r0, r4, asr #1
	...
  20:	0000001c 	andeq	r0, r0, ip, lsl r0
  24:	03f90002 	mvnseq	r0, #2
  28:	00040000 	andeq	r0, r4, r0
  2c:	00000000 	andeq	r0, r0, r0
  30:	0800027c 	stmdaeq	r0, {r2, r3, r4, r5, r6, r9}
  34:	00000168 	andeq	r0, r0, r8, ror #2
	...
  40:	00000024 	andeq	r0, r0, r4, lsr #32
  44:	0a340002 	beq	d00054 <_Min_Stack_Size+0xcffc54>
  48:	00040000 	andeq	r0, r4, r0
  4c:	00000000 	andeq	r0, r0, r0
  50:	08002b14 	stmdaeq	r0, {r2, r4, r8, r9, fp, sp}
  54:	00000044 	andeq	r0, r0, r4, asr #32
  58:	08002b58 	stmdaeq	r0, {r3, r4, r6, r8, r9, fp, sp}
  5c:	00000002 	andeq	r0, r0, r2
	...
  68:	0000001c 	andeq	r0, r0, ip, lsl r0
  6c:	0b330002 	bleq	cc007c <_Min_Stack_Size+0xcbfc7c>
  70:	00040000 	andeq	r0, r4, r0
  74:	00000000 	andeq	r0, r0, r0
  78:	080003f8 	stmdaeq	r0, {r3, r4, r5, r6, r7, r8, r9}
  7c:	00000022 	andeq	r0, r0, r2, lsr #32
	...

Disassembly of section .debug_str:

00000000 <.debug_str>:
   0:	4f495047 	svcmi	0x00495047
   4:	7079545f 	rsbsvc	r5, r9, pc, asr r4
   8:	66654465 	strbtvs	r4, [r5], -r5, ror #8
   c:	49504700 	ldmdbmi	r0, {r8, r9, sl, lr}^
  10:	69505f4f 	ldmdbvs	r0, {r0, r1, r2, r3, r6, r8, r9, sl, fp, ip, lr}^
  14:	5047006e 	subpl	r0, r7, lr, rrx
  18:	535f4f49 	cmppl	pc, #292	; 0x124
  1c:	64656570 	strbtvs	r6, [r5], #-1392	; 0xfffffa90
  20:	4d35325f 	lfmmi	f3, 4, [r5, #-380]!	; 0xfffffe84
  24:	73007a48 	movwvc	r7, #2632	; 0xa48
  28:	74726f68 	ldrbtvc	r6, [r2], #-3944	; 0xfffff098
  2c:	746e6920 	strbtvc	r6, [lr], #-2336	; 0xfffff6e0
  30:	49504700 	ldmdbmi	r0, {r8, r9, sl, lr}^
  34:	544f5f4f 	strbpl	r5, [pc], #-3919	; 3c <_Min_Heap_Size+0x3c>
  38:	5f657079 	svcpl	0x00657079
  3c:	6c00444f 	cfstrsvs	mvf4, [r0], {79}	; 0x4f
  40:	20676e6f 	rsbcs	r6, r7, pc, ror #28
  44:	62756f64 	rsbsvs	r6, r5, #100, 30	; 0x190
  48:	4700656c 	strmi	r6, [r0, -ip, ror #10]
  4c:	5f4f4950 	svcpl	0x004f4950
  50:	7079544f 	rsbsvc	r5, r9, pc, asr #8
  54:	50470065 	subpl	r0, r7, r5, rrx
  58:	4d5f4f49 	ldclmi	15, cr4, [pc, #-292]	; ffffff3c <_estack+0xdffdff3c>
  5c:	5f65646f 	svcpl	0x0065646f
  60:	45004641 	strmi	r4, [r0, #-1601]	; 0xfffff9bf
  64:	4c42414e 	stfmie	f4, [r2], {78}	; 0x4e
  68:	50470045 	subpl	r0, r7, r5, asr #32
  6c:	535f4f49 	cmppl	pc, #292	; 0x124
  70:	64656570 	strbtvs	r6, [r5], #-1392	; 0xfffffa90
  74:	49504700 	ldmdbmi	r0, {r8, r9, sl, lr}^
  78:	6f4d5f4f 	svcvs	0x004d5f4f
  7c:	415f6564 	cmpmi	pc, r4, ror #10
  80:	5047004e 	subpl	r0, r7, lr, asr #32
  84:	535f4f49 	cmppl	pc, #292	; 0x124
  88:	64656570 	strbtvs	r6, [r5], #-1392	; 0xfffffa90
  8c:	3030315f 	eorscc	r3, r0, pc, asr r1
  90:	007a484d 	rsbseq	r4, sl, sp, asr #16
  94:	4f495047 	svcmi	0x00495047
  98:	7079544f 	rsbsvc	r5, r9, pc, asr #8
  9c:	79545f65 	ldmdbvc	r4, {r0, r2, r5, r6, r8, r9, sl, fp, ip, lr}^
  a0:	65446570 	strbvs	r6, [r4, #-1392]	; 0xfffffa90
  a4:	544f0066 	strbpl	r0, [pc], #-102	; ac <_Min_Heap_Size+0xac>
  a8:	52455059 	subpl	r5, r5, #89	; 0x59
  ac:	6f6c6600 	svcvs	0x006c6600
  b0:	6c007461 	cfstrsvs	mvf7, [r0], {97}	; 0x61
  b4:	20676e6f 	rsbcs	r6, r7, pc, ror #28
  b8:	676e6f6c 	strbvs	r6, [lr, -ip, ror #30]!
  bc:	746e6920 	strbtvc	r6, [lr], #-2336	; 0xfffff6e0
  c0:	49504700 	ldmdbmi	r0, {r8, r9, sl, lr}^
  c4:	6f4d5f4f 	svcvs	0x004d5f4f
  c8:	4f5f6564 	svcmi	0x005f6564
  cc:	50005455 	andpl	r5, r0, r5, asr r4
  d0:	52445055 	subpl	r5, r4, #85	; 0x55
  d4:	49504700 	ldmdbmi	r0, {r8, r9, sl, lr}^
  d8:	6f4d5f4f 	svcvs	0x004d5f4f
  dc:	495f6564 	ldmdbmi	pc, {r2, r5, r6, r8, sl, sp, lr}^	; <UNPREDICTABLE>
  e0:	5342004e 	movtpl	r0, #8270	; 0x204e
  e4:	00485252 	subeq	r5, r8, r2, asr r2
  e8:	45444f4d 	strbmi	r4, [r4, #-3917]	; 0xfffff0b3
  ec:	53420052 	movtpl	r0, #8274	; 0x2052
  f0:	004c5252 	subeq	r5, ip, r2, asr r2
  f4:	4f495047 	svcmi	0x00495047
  f8:	79544f5f 	ldmdbvc	r4, {r0, r1, r2, r3, r4, r6, r8, r9, sl, fp, lr}^
  fc:	505f6570 	subspl	r6, pc, r0, ror r5	; <UNPREDICTABLE>
 100:	6e750050 	mrcvs	0, 3, r0, cr5, cr0, {2}
 104:	6e676973 	mcrvs	9, 3, r6, cr7, cr3, {3}
 108:	63206465 	teqvs	r0, #1694498816	; 0x65000000
 10c:	00726168 	rsbseq	r6, r2, r8, ror #2
 110:	4f495047 	svcmi	0x00495047
 114:	5075505f 	rsbspl	r5, r5, pc, asr r0
 118:	50470064 	subpl	r0, r7, r4, rrx
 11c:	535f4f49 	cmppl	pc, #292	; 0x124
 120:	64656570 	strbtvs	r6, [r5], #-1392	; 0xfffffa90
 124:	484d325f 	stmdami	sp, {r0, r1, r2, r3, r4, r6, r9, ip, sp}^
 128:	6f6c007a 	svcvs	0x006c007a
 12c:	6c20676e 	stcvs	7, cr6, [r0], #-440	; 0xfffffe48
 130:	20676e6f 	rsbcs	r6, r7, pc, ror #28
 134:	69736e75 	ldmdbvs	r3!, {r0, r2, r4, r5, r6, r9, sl, fp, sp, lr}^
 138:	64656e67 	strbtvs	r6, [r5], #-3687	; 0xfffff199
 13c:	746e6920 	strbtvc	r6, [lr], #-2336	; 0xfffff6e0
 140:	6e697500 	cdpvs	5, 6, cr7, cr9, cr0, {0}
 144:	5f323374 	svcpl	0x00323374
 148:	50470074 	subpl	r0, r7, r4, ror r0
 14c:	495f4f49 	ldmdbmi	pc, {r0, r3, r6, r8, r9, sl, fp, lr}^	; <UNPREDICTABLE>
 150:	5474696e 	ldrbtpl	r6, [r4], #-2414	; 0xfffff692
 154:	44657079 	strbtmi	r7, [r5], #-121	; 0xffffff87
 158:	75006665 	strvc	r6, [r0, #-1637]	; 0xfffff99b
 15c:	31746e69 	cmncc	r4, r9, ror #28
 160:	00745f36 	rsbseq	r5, r4, r6, lsr pc
 164:	726f6873 	rsbvc	r6, pc, #7536640	; 0x730000
 168:	6e752074 	mrcvs	0, 3, r2, cr5, cr4, {3}
 16c:	6e676973 	mcrvs	9, 3, r6, cr7, cr3, {3}
 170:	69206465 	stmdbvs	r0!, {r0, r2, r5, r6, sl, sp, lr}
 174:	6e00746e 	cdpvs	4, 0, cr7, cr0, cr14, {3}
 178:	6e756f43 	cdpvs	15, 7, cr6, cr5, cr3, {2}
 17c:	682f0074 	stmdavs	pc!, {r2, r4, r5, r6}	; <UNPREDICTABLE>
 180:	2f656d6f 	svccs	0x00656d6f
 184:	6964616a 	stmdbvs	r4!, {r1, r3, r5, r6, r8, sp, lr}^
 188:	726d2f64 	rsbvc	r2, sp, #100, 30	; 0x190
 18c:	6172676f 	cmnvs	r2, pc, ror #14
 190:	54532f6d 	ldrbpl	r2, [r3], #-3949	; 0xfffff093
 194:	4632334d 	ldrtmi	r3, [r2], -sp, asr #6
 198:	65742f34 	ldrbvs	r2, [r4, #-3892]!	; 0xfffff0cc
 19c:	656e6178 	strbvs	r6, [lr, #-376]!	; 0xfffffe88
 1a0:	6c74732d 	ldclvs	3, cr7, [r4], #-180	; 0xffffff4c
 1a4:	2f6b6e69 	svccs	0x006b6e69
 1a8:	6d617865 	stclvs	8, cr7, [r1, #-404]!	; 0xfffffe6c
 1ac:	2f656c70 	svccs	0x00656c70
 1b0:	336d7473 	cmncc	sp, #1929379840	; 0x73000000
 1b4:	2f346632 	svccs	0x00346632
 1b8:	6a6f7250 	bvs	1bdcb00 <_Min_Stack_Size+0x1bdc700>
 1bc:	73746365 	cmnvc	r4, #-1811939327	; 0x94000001
 1c0:	4d54532f 	ldclmi	3, cr5, [r4, #-188]	; 0xffffff44
 1c4:	34463233 	strbcc	r3, [r6], #-563	; 0xfffffdcd
 1c8:	7369442d 	cmnvc	r9, #754974720	; 0x2d000000
 1cc:	65766f63 	ldrbvs	r6, [r6, #-3939]!	; 0xfffff09d
 1d0:	465f7972 			; <UNDEFINED> instruction: 0x465f7972
 1d4:	31565f57 	cmpcc	r6, r7, asr pc
 1d8:	302e312e 	eorcc	r3, lr, lr, lsr #2
 1dc:	6f72502f 	svcvs	0x0072502f
 1e0:	7463656a 	strbtvc	r6, [r3], #-1386	; 0xfffffa96
 1e4:	7265502f 	rsbvc	r5, r5, #47	; 0x2f
 1e8:	65687069 	strbvs	r7, [r8, #-105]!	; 0xffffff97
 1ec:	5f6c6172 	svcpl	0x006c6172
 1f0:	6d617845 	stclvs	8, cr7, [r1, #-276]!	; 0xfffffeec
 1f4:	73656c70 	cmnvc	r5, #112, 24	; 0x7000
 1f8:	5f4f492f 	svcpl	0x004f492f
 1fc:	67676f54 			; <UNDEFINED> instruction: 0x67676f54
 200:	6d00656c 	cfstr32vs	mvfx6, [r0, #-432]	; 0xfffffe50
 204:	006e6961 	rsbeq	r6, lr, r1, ror #18
 208:	41534944 	cmpmi	r3, r4, asr #18
 20c:	00454c42 	subeq	r4, r5, r2, asr #24
 210:	4550534f 	ldrbmi	r5, [r0, #-847]	; 0xfffffcb1
 214:	00524445 	subseq	r4, r2, r5, asr #8
 218:	6e69616d 	powvsez	f6, f1, #5.0
 21c:	4700632e 	strmi	r6, [r0, -lr, lsr #6]
 220:	534f4950 	movtpl	r4, #63824	; 0xf950
 224:	64656570 	strbtvs	r6, [r5], #-1392	; 0xfffffa90
 228:	7079545f 	rsbsvc	r5, r9, pc, asr r4
 22c:	66654465 	strbtvs	r4, [r5], -r5, ror #8
 230:	49504700 	ldmdbmi	r0, {r8, r9, sl, lr}^
 234:	75505f4f 	ldrbvc	r5, [r0, #-3919]	; 0xfffff0b1
 238:	445f6450 	ldrbmi	r6, [pc], #-1104	; 240 <_Min_Heap_Size+0x240>
 23c:	004e574f 	subeq	r5, lr, pc, asr #14
 240:	4f495047 	svcmi	0x00495047
 244:	5075505f 	rsbspl	r5, r5, pc, asr r0
 248:	4f4e5f64 	svcmi	0x004e5f64
 24c:	4c4c5550 	cfstr64mi	mvdx5, [ip], {80}	; 0x50
 250:	554e4700 	strbpl	r4, [lr, #-1792]	; 0xfffff900
 254:	34204320 	strtcc	r4, [r0], #-800	; 0xfffffce0
 258:	322e352e 	eorcc	r3, lr, #192937984	; 0xb800000
 25c:	616b6100 	cmnvs	fp, r0, lsl #2
 260:	50470072 	subpl	r0, r7, r2, ror r0
 264:	495f4f49 	ldmdbmi	pc, {r0, r3, r6, r8, r9, sl, fp, lr}^	; <UNPREDICTABLE>
 268:	5374696e 	cmnpl	r4, #1802240	; 0x1b8000
 26c:	63757274 	cmnvs	r5, #116, 4	; 0x40000007
 270:	65727574 	ldrbvs	r7, [r2, #-1396]!	; 0xfffffa8c
 274:	49504700 	ldmdbmi	r0, {r8, r9, sl, lr}^
 278:	70535f4f 	subsvc	r5, r3, pc, asr #30
 27c:	5f646565 	svcpl	0x00646565
 280:	484d3035 	stmdami	sp, {r0, r2, r4, r5, ip, sp}^
 284:	7361007a 	cmnvc	r1, #122	; 0x7a
 288:	74726573 	ldrbtvc	r6, [r2], #-1395	; 0xfffffa8d
 28c:	7261705f 	rsbvc	r7, r1, #95	; 0x5f
 290:	47006d61 	strmi	r6, [r0, -r1, ror #26]
 294:	504f4950 	subpl	r4, pc, r0, asr r9	; <UNPREDICTABLE>
 298:	5f645075 	svcpl	0x00645075
 29c:	65707954 	ldrbvs	r7, [r0, #-2388]!	; 0xfffff6ac
 2a0:	00666544 	rsbeq	r6, r6, r4, asr #10
 2a4:	4f495047 	svcmi	0x00495047
 2a8:	65646f4d 	strbvs	r6, [r4, #-3917]!	; 0xfffff0b3
 2ac:	7079545f 	rsbsvc	r5, r9, pc, asr r4
 2b0:	66654465 	strbtvs	r4, [r5], -r5, ror #8
 2b4:	49504700 	ldmdbmi	r0, {r8, r9, sl, lr}^
 2b8:	75505f4f 	ldrbvc	r5, [r0, #-3919]	; 0xfffff0b1
 2bc:	555f6450 	ldrbpl	r6, [pc, #-1104]	; fffffe74 <_estack+0xdffdfe74>
 2c0:	54490050 	strbpl	r0, [r9], #-80	; 0xffffffb0
 2c4:	78525f4d 	ldmdavc	r2, {r0, r2, r3, r6, r8, r9, sl, fp, ip, lr}^
 2c8:	66667542 	strbtvs	r7, [r6], -r2, asr #10
 2cc:	44007265 	strmi	r7, [r0], #-613	; 0xfffffd9b
 2d0:	79616c65 	stmdbvc	r1!, {r0, r2, r5, r6, sl, fp, sp, lr}^
 2d4:	4b434c00 	blmi	10d32dc <_Min_Stack_Size+0x10d2edc>
 2d8:	50470052 	subpl	r0, r7, r2, asr r0
 2dc:	4d5f4f49 	ldclmi	15, cr4, [pc, #-292]	; 1c0 <_Min_Heap_Size+0x1c0>
 2e0:	0065646f 	rsbeq	r6, r5, pc, ror #8
 2e4:	31424841 	cmpcc	r2, r1, asr #16
 2e8:	4e45504c 	cdpmi	0, 4, cr5, cr5, cr12, {2}
 2ec:	50410052 	subpl	r0, r1, r2, asr r0
 2f0:	53523142 	cmppl	r2, #-2147483632	; 0x80000010
 2f4:	41005254 	tstmi	r0, r4, asr r2
 2f8:	45324248 	ldrmi	r4, [r2, #-584]!	; 0xfffffdb8
 2fc:	4200524e 	andmi	r5, r0, #-536870908	; 0xe0000004
 300:	00524344 	subseq	r4, r2, r4, asr #6
 304:	52534349 	subspl	r4, r3, #603979777	; 0x24000001
 308:	4c4c5000 	marmi	acc0, r5, ip
 30c:	43533249 	cmpmi	r3, #-1879048188	; 0x90000004
 310:	00524746 	subseq	r4, r2, r6, asr #14
 314:	5f525750 	svcpl	0x00525750
 318:	65707954 	ldrbvs	r7, [r0, #-2388]!	; 0xfffff6ac
 31c:	00666544 	rsbeq	r6, r6, r4, asr #10
 320:	47435353 	smlsldmi	r5, r3, r3, r3
 324:	53480052 	movtpl	r0, #32850	; 0x8052
 328:	61745345 	cmnvs	r4, r5, asr #6
 32c:	00737574 	rsbseq	r7, r3, r4, ror r5
 330:	49555043 	ldmdbmi	r5, {r0, r1, r6, ip, lr}^
 334:	45520044 	ldrbmi	r0, [r2, #-68]	; 0xffffffbc
 338:	56524553 			; <UNDEFINED> instruction: 0x56524553
 33c:	00304445 	eorseq	r4, r0, r5, asr #8
 340:	33424841 	movtcc	r4, #10305	; 0x2841
 344:	4e45504c 	cdpmi	0, 4, cr5, cr5, cr12, {2}
 348:	45520052 	ldrbmi	r0, [r2, #-82]	; 0xffffffae
 34c:	56524553 			; <UNDEFINED> instruction: 0x56524553
 350:	00334445 	eorseq	r4, r3, r5, asr #8
 354:	746e6975 	strbtvc	r6, [lr], #-2421	; 0xfffff68b
 358:	00745f38 	rsbseq	r5, r4, r8, lsr pc
 35c:	31425041 	cmpcc	r2, r1, asr #32
 360:	00524e45 	subseq	r4, r2, r5, asr #28
 364:	33424841 	movtcc	r4, #10305	; 0x2841
 368:	00524e45 	subseq	r4, r2, r5, asr #28
 36c:	4b54504f 	blmi	15144b0 <_Min_Stack_Size+0x15140b0>
 370:	00525945 	subseq	r5, r2, r5, asr #18
 374:	52414642 	subpl	r4, r1, #69206016	; 0x4200000
 378:	43435200 	movtmi	r5, #12800	; 0x3200
 37c:	7079545f 	rsbsvc	r5, r9, pc, asr r4
 380:	66654465 	strbtvs	r4, [r5], -r5, ror #8
 384:	42504100 	subsmi	r4, r0, #0, 2
 388:	54535232 	ldrbpl	r5, [r3], #-562	; 0xfffffdce
 38c:	46430052 			; <UNDEFINED> instruction: 0x46430052
 390:	41005253 	tstmi	r0, r3, asr r2
 394:	52324248 	eorspl	r4, r2, #72, 4	; 0x80000004
 398:	00525453 	subseq	r5, r2, r3, asr r4
 39c:	736c6c70 	cmnvc	ip, #112, 24	; 0x7000
 3a0:	6372756f 	cmnvs	r2, #465567744	; 0x1bc00000
 3a4:	6c700065 	ldclvs	0, cr0, [r0], #-404	; 0xfffffe6c
 3a8:	70006d6c 	andvc	r6, r0, ip, ror #26
 3ac:	00706c6c 	rsbseq	r6, r0, ip, ror #24
 3b0:	43524941 	cmpmi	r2, #1064960	; 0x104000
 3b4:	43530052 	cmpmi	r3, #82	; 0x52
 3b8:	79545f42 	ldmdbvc	r4, {r1, r6, r8, r9, sl, fp, ip, lr}^
 3bc:	41006570 	tstmi	r0, r0, ror r5
 3c0:	45324250 	ldrmi	r4, [r2, #-592]!	; 0xfffffdb0
 3c4:	5300524e 	movwpl	r5, #590	; 0x24e
 3c8:	74726174 	ldrbtvc	r6, [r2], #-372	; 0xfffffe8c
 3cc:	6f437055 	svcvs	0x00437055
 3d0:	65746e75 	ldrbvs	r6, [r4, #-3701]!	; 0xfffff18b
 3d4:	48530072 	ldmdami	r3, {r1, r4, r5, r6}^
 3d8:	00525343 	subseq	r5, r2, r3, asr #6
 3dc:	74737953 	ldrbtvc	r7, [r3], #-2387	; 0xfffff6ad
 3e0:	6f436d65 	svcvs	0x00436d65
 3e4:	6c436572 	cfstr64vs	mvdx6, [r3], {114}	; 0x72
 3e8:	556b636f 	strbpl	r6, [fp, #-879]!	; 0xfffffc91
 3ec:	74616470 	strbtvc	r6, [r1], #-1136	; 0xfffffb90
 3f0:	4d4d0065 	stclmi	0, cr0, [sp, #-404]	; 0xfffffe6c
 3f4:	00524146 	subseq	r4, r2, r6, asr #2
 3f8:	434c4c50 	movtmi	r4, #52304	; 0xcc50
 3fc:	00524746 	subseq	r4, r2, r6, asr #14
 400:	31425041 	cmpcc	r2, r1, asr #32
 404:	4e45504c 	cdpmi	0, 4, cr5, cr5, cr12, {2}
 408:	6c700052 	ldclvs	0, cr0, [r0], #-328	; 0xfffffeb8
 40c:	6f63766c 	svcvs	0x0063766c
 410:	4f545600 	svcmi	0x00545600
 414:	53490052 	movtpl	r0, #36946	; 0x9052
 418:	44005241 	strmi	r5, [r0], #-577	; 0xfffffdbf
 41c:	00525346 	subseq	r5, r2, r6, asr #6
 420:	74737953 	ldrbtvc	r7, [r3], #-2387	; 0xfffff6ad
 424:	6f436d65 	svcvs	0x00436d65
 428:	6c436572 	cfstr64vs	mvdx6, [r3], {114}	; 0x72
 42c:	006b636f 	rsbeq	r6, fp, pc, ror #6
 430:	52534648 	subspl	r4, r3, #72, 12	; 0x4800000
 434:	42484100 	submi	r4, r8, #0, 2
 438:	45504c32 	ldrbmi	r4, [r0, #-3122]	; 0xfffff3ce
 43c:	4d00524e 	sfmmi	f5, 4, [r0, #-312]	; 0xfffffec8
 440:	0052464d 	subseq	r4, r2, sp, asr #12
 444:	50424841 	subpl	r4, r2, r1, asr #16
 448:	63736572 	cmnvs	r3, #478150656	; 0x1c800000
 44c:	6c626154 	stfvse	f6, [r2], #-336	; 0xfffffeb0
 450:	45520065 	ldrbmi	r0, [r2, #-101]	; 0xffffff9b
 454:	56524553 			; <UNDEFINED> instruction: 0x56524553
 458:	00314445 	eorseq	r4, r1, r5, asr #8
 45c:	45534552 	ldrbmi	r4, [r3, #-1362]	; 0xfffffaae
 460:	44455652 	strbmi	r5, [r5], #-1618	; 0xfffff9ae
 464:	65530032 	ldrbvs	r0, [r3, #-50]	; 0xffffffce
 468:	73795374 	cmnvc	r9, #116, 6	; 0xd0000001
 46c:	636f6c43 	cmnvs	pc, #17152	; 0x4300
 470:	4552006b 	ldrbmi	r0, [r2, #-107]	; 0xffffff95
 474:	56524553 			; <UNDEFINED> instruction: 0x56524553
 478:	00344445 	eorseq	r4, r4, r5, asr #8
 47c:	45534552 	ldrbmi	r4, [r3, #-1362]	; 0xfffffaae
 480:	44455652 	strbmi	r5, [r5], #-1618	; 0xfffff9ae
 484:	45520035 	ldrbmi	r0, [r2, #-53]	; 0xffffffcb
 488:	56524553 			; <UNDEFINED> instruction: 0x56524553
 48c:	00364445 	eorseq	r4, r6, r5, asr #8
 490:	31424841 	cmpcc	r2, r1, asr #16
 494:	00524e45 	subseq	r4, r2, r5, asr #28
 498:	45534552 	ldrbmi	r4, [r3, #-1362]	; 0xfffffaae
 49c:	79530054 	ldmdbvc	r3, {r2, r4, r6}^
 4a0:	6d657473 	cfstrdvs	mvd7, [r5, #-460]!	; 0xfffffe34
 4a4:	74696e49 	strbtvc	r6, [r9], #-3657	; 0xfffff1b7
 4a8:	42484100 	submi	r4, r8, #0, 2
 4ac:	54535231 	ldrbpl	r5, [r3], #-561	; 0xfffffdcf
 4b0:	79730052 	ldmdbvc	r3!, {r1, r4, r6}^
 4b4:	6d657473 	cfstrdvs	mvd7, [r5, #-460]!	; 0xfffffe34
 4b8:	6d74735f 	ldclvs	3, cr7, [r4, #-380]!	; 0xfffffe84
 4bc:	34663233 	strbtcc	r3, [r6], #-563	; 0xfffffdcd
 4c0:	632e7878 	teqvs	lr, #120, 16	; 0x780000
 4c4:	53464100 	movtpl	r4, #24832	; 0x6100
 4c8:	48410052 	stmdami	r1, {r1, r4, r6}^
 4cc:	53523342 	cmppl	r2, #134217729	; 0x8000001
 4d0:	46005254 			; <UNDEFINED> instruction: 0x46005254
 4d4:	4853414c 	ldmdami	r3, {r2, r3, r6, r8, lr}^
 4d8:	7079545f 	rsbsvc	r5, r9, pc, asr r4
 4dc:	66654465 	strbtvs	r4, [r5], -r5, ror #8
 4e0:	41504300 	cmpmi	r0, r0, lsl #6
 4e4:	41005243 	tstmi	r0, r3, asr #4
 4e8:	4c324250 	lfmmi	f4, 4, [r2], #-320	; 0xfffffec0
 4ec:	524e4550 	subpl	r4, lr, #80, 10	; 0x14000000
 4f0:	54504f00 	ldrbpl	r4, [r0], #-3840	; 0xfffff100
 4f4:	55005243 	strpl	r5, [r0, #-579]	; 0xfffffdbd
 4f8:	65676173 	strbvs	r6, [r7, #-371]!	; 0xfffffe8d
 4fc:	6c756146 	ldfvse	f6, [r5], #-280	; 0xfffffee8
 500:	61485f74 	hvcvs	34292	; 0x85f4
 504:	656c646e 	strbvs	r6, [ip, #-1134]!	; 0xfffffb92
 508:	75420072 	strbvc	r0, [r2, #-114]	; 0xffffff8e
 50c:	75614673 	strbvc	r4, [r1, #-1651]!	; 0xfffff98d
 510:	485f746c 	ldmdami	pc, {r2, r3, r5, r6, sl, ip, sp, lr}^	; <UNPREDICTABLE>
 514:	6c646e61 	stclvs	14, cr6, [r4], #-388	; 0xfffffe7c
 518:	73007265 	movwvc	r7, #613	; 0x265
 51c:	32336d74 	eorscc	r6, r3, #116, 26	; 0x1d00
 520:	78783466 	ldmdavc	r8!, {r1, r2, r5, r6, sl, ip, sp}^
 524:	2e74695f 	mrccs	9, 3, r6, cr4, cr15, {2}
 528:	61480063 	cmpvs	r8, r3, rrx
 52c:	61466472 	hvcvs	26178	; 0x6642
 530:	5f746c75 	svcpl	0x00746c75
 534:	646e6148 	strbtvs	r6, [lr], #-328	; 0xfffffeb8
 538:	0072656c 	rsbseq	r6, r2, ip, ror #10
 53c:	5f494d4e 	svcpl	0x00494d4e
 540:	646e6148 	strbtvs	r6, [lr], #-328	; 0xfffffeb8
 544:	0072656c 	rsbseq	r6, r2, ip, ror #10
 548:	646e6550 	strbtvs	r6, [lr], #-1360	; 0xfffffab0
 54c:	485f5653 	ldmdami	pc, {r0, r1, r4, r6, r9, sl, ip, lr}^	; <UNPREDICTABLE>
 550:	6c646e61 	stclvs	14, cr6, [r4], #-388	; 0xfffffe7c
 554:	4d007265 	sfmmi	f7, 4, [r0, #-404]	; 0xfffffe6c
 558:	614d6d65 	cmpvs	sp, r5, ror #26
 55c:	6567616e 	strbvs	r6, [r7, #-366]!	; 0xfffffe92
 560:	6e61485f 	mcrvs	8, 3, r4, cr1, cr15, {2}
 564:	72656c64 	rsbvc	r6, r5, #100, 24	; 0x6400
 568:	73795300 	cmnvc	r9, #0, 6
 56c:	6b636954 	blvs	18daac4 <_Min_Stack_Size+0x18da6c4>
 570:	6e61485f 	mcrvs	8, 3, r4, cr1, cr15, {2}
 574:	72656c64 	rsbvc	r6, r5, #100, 24	; 0x6400
 578:	43565300 	cmpmi	r6, #0, 6
 57c:	6e61485f 	mcrvs	8, 3, r4, cr1, cr15, {2}
 580:	72656c64 	rsbvc	r6, r5, #100, 24	; 0x6400
 584:	62654400 	rsbvs	r4, r5, #0, 8
 588:	6f4d6775 	svcvs	0x004d6775
 58c:	61485f6e 	cmpvs	r8, lr, ror #30
 590:	656c646e 	strbvs	r6, [ip, #-1134]!	; 0xfffffb92
 594:	Address 0x00000594 is out of bounds.


Disassembly of section .comment:

00000000 <.comment>:
   0:	3a434347 	bcc	10d0d24 <_Min_Stack_Size+0x10d0924>
   4:	6f532820 	svcvs	0x00532820
   8:	65637275 	strbvs	r7, [r3, #-629]!	; 0xfffffd8b
   c:	47207972 			; <UNDEFINED> instruction: 0x47207972
  10:	4c202b2b 	stcmi	11, cr2, [r0], #-172	; 0xffffff54
  14:	20657469 	rsbcs	r7, r5, r9, ror #8
  18:	31313032 	teqcc	r1, r2, lsr r0
  1c:	2d33302e 	ldccs	0, cr3, [r3, #-184]!	; 0xffffff48
  20:	20293234 	eorcs	r3, r9, r4, lsr r2
  24:	2e352e34 	mrccs	14, 1, r2, cr5, cr4, {1}
  28:	Address 0x00000028 is out of bounds.


Disassembly of section .debug_frame:

00000000 <.debug_frame>:
   0:	0000000c 	andeq	r0, r0, ip
   4:	ffffffff 			; <UNDEFINED> instruction: 0xffffffff
   8:	7c020001 	stcvc	0, cr0, [r2], {1}
   c:	000d0c0e 	andeq	r0, sp, lr, lsl #24
  10:	00000014 	andeq	r0, r0, r4, lsl r0
  14:	00000000 	andeq	r0, r0, r0
  18:	080001b8 	stmdaeq	r0, {r3, r4, r5, r7, r8}
  1c:	00000088 	andeq	r0, r0, r8, lsl #1
  20:	42080e41 	andmi	r0, r8, #1040	; 0x410
  24:	0284018e 	addeq	r0, r4, #-2147483613	; 0x80000023
  28:	00000010 	andeq	r0, r0, r0, lsl r0
  2c:	00000000 	andeq	r0, r0, r0
  30:	08000240 	stmdaeq	r0, {r6, r9}
  34:	00000012 	andeq	r0, r0, r2, lsl r0
  38:	00080e41 	andeq	r0, r8, r1, asr #28
  3c:	0000000c 	andeq	r0, r0, ip
  40:	00000000 	andeq	r0, r0, r0
  44:	08000254 	stmdaeq	r0, {r2, r4, r6, r9}
  48:	00000002 	andeq	r0, r0, r2
  4c:	00000014 	andeq	r0, r0, r4, lsl r0
  50:	00000000 	andeq	r0, r0, r0
  54:	08000258 	stmdaeq	r0, {r3, r4, r6, r9}
  58:	00000024 	andeq	r0, r0, r4, lsr #32
  5c:	45080e45 	strmi	r0, [r8, #-3653]	; 0xfffff1bb
  60:	0283018e 	addeq	r0, r3, #-2147483613	; 0x80000023
  64:	0000000c 	andeq	r0, r0, ip
  68:	ffffffff 			; <UNDEFINED> instruction: 0xffffffff
  6c:	7c020001 	stcvc	0, cr0, [r2], {1}
  70:	000d0c0e 	andeq	r0, sp, lr, lsl #24
  74:	00000010 	andeq	r0, r0, r0, lsl r0
  78:	00000064 	andeq	r0, r0, r4, rrx
  7c:	0800027c 	stmdaeq	r0, {r2, r3, r4, r5, r6, r9}
  80:	000000fc 	strdeq	r0, [r0], -ip
  84:	00080e51 	andeq	r0, r8, r1, asr lr
  88:	0000000c 	andeq	r0, r0, ip
  8c:	00000064 	andeq	r0, r0, r4, rrx
  90:	08000378 	stmdaeq	r0, {r3, r4, r5, r6, r8, r9}
  94:	0000006c 	andeq	r0, r0, ip, rrx
  98:	0000000c 	andeq	r0, r0, ip
  9c:	ffffffff 			; <UNDEFINED> instruction: 0xffffffff
  a0:	7c020001 	stcvc	0, cr0, [r2], {1}
  a4:	000d0c0e 	andeq	r0, sp, lr, lsl #24
  a8:	0000000c 	andeq	r0, r0, ip
  ac:	00000098 	muleq	r0, r8, r0
  b0:	080003f8 	stmdaeq	r0, {r3, r4, r5, r6, r7, r8, r9}
  b4:	00000002 	andeq	r0, r0, r2
  b8:	0000000c 	andeq	r0, r0, ip
  bc:	00000098 	muleq	r0, r8, r0
  c0:	080003fc 	stmdaeq	r0, {r2, r3, r4, r5, r6, r7, r8, r9}
  c4:	00000002 	andeq	r0, r0, r2
  c8:	0000000c 	andeq	r0, r0, ip
  cc:	00000098 	muleq	r0, r8, r0
  d0:	08000400 	stmdaeq	r0, {sl}
  d4:	00000002 	andeq	r0, r0, r2
  d8:	0000000c 	andeq	r0, r0, ip
  dc:	00000098 	muleq	r0, r8, r0
  e0:	08000404 	stmdaeq	r0, {r2, sl}
  e4:	00000002 	andeq	r0, r0, r2
  e8:	0000000c 	andeq	r0, r0, ip
  ec:	00000098 	muleq	r0, r8, r0
  f0:	08000408 	stmdaeq	r0, {r3, sl}
  f4:	00000002 	andeq	r0, r0, r2
  f8:	0000000c 	andeq	r0, r0, ip
  fc:	00000098 	muleq	r0, r8, r0
 100:	0800040c 	stmdaeq	r0, {r2, r3, sl}
 104:	00000002 	andeq	r0, r0, r2
 108:	0000000c 	andeq	r0, r0, ip
 10c:	00000098 	muleq	r0, r8, r0
 110:	08000410 	stmdaeq	r0, {r4, sl}
 114:	00000002 	andeq	r0, r0, r2
 118:	0000000c 	andeq	r0, r0, ip
 11c:	00000098 	muleq	r0, r8, r0
 120:	08000414 	stmdaeq	r0, {r2, r4, sl}
 124:	00000002 	andeq	r0, r0, r2
 128:	0000000c 	andeq	r0, r0, ip
 12c:	00000098 	muleq	r0, r8, r0
 130:	08000418 	stmdaeq	r0, {r3, r4, sl}
 134:	00000002 	andeq	r0, r0, r2
 138:	0000000c 	andeq	r0, r0, ip
 13c:	ffffffff 			; <UNDEFINED> instruction: 0xffffffff
 140:	7c020001 	stcvc	0, cr0, [r2], {1}
 144:	000d0c0e 	andeq	r0, sp, lr, lsl #24
 148:	0000001c 	andeq	r0, r0, ip, lsl r0
 14c:	00000138 	andeq	r0, r0, r8, lsr r1
 150:	08001b58 	stmdaeq	r0, {r3, r4, r6, r8, r9, fp, ip}
 154:	000000a4 	andeq	r0, r0, r4, lsr #1
 158:	41100e41 	tstmi	r0, r1, asr #28
 15c:	8e41380e 	cdphi	8, 4, cr3, cr1, cr14, {0}
 160:	85028601 	strhi	r8, [r2, #-1537]	; 0xfffff9ff
 164:	00048403 	andeq	r8, r4, r3, lsl #8
 168:	0000000c 	andeq	r0, r0, ip
 16c:	ffffffff 			; <UNDEFINED> instruction: 0xffffffff
 170:	7c020001 	stcvc	0, cr0, [r2], {1}
 174:	000d0c0e 	andeq	r0, sp, lr, lsl #24
 178:	00000018 	andeq	r0, r0, r8, lsl r0
 17c:	00000168 	andeq	r0, r0, r8, ror #2
 180:	08001bfc 	stmdaeq	r0, {r2, r3, r4, r5, r6, r7, r8, r9, fp, ip}
 184:	000000ae 	andeq	r0, r0, lr, lsr #1
 188:	41100e46 	tstmi	r0, r6, asr #28
 18c:	0286018e 	addeq	r0, r6, #-2147483613	; 0x80000023
 190:	04840385 	streq	r0, [r4], #901	; 0x385
 194:	0000000c 	andeq	r0, r0, ip
 198:	ffffffff 			; <UNDEFINED> instruction: 0xffffffff
 19c:	7c020001 	stcvc	0, cr0, [r2], {1}
 1a0:	000d0c0e 	andeq	r0, sp, lr, lsl #24
 1a4:	0000000c 	andeq	r0, r0, ip
 1a8:	00000194 	muleq	r0, r4, r1
 1ac:	08001cac 	stmdaeq	r0, {r2, r3, r5, r7, sl, fp, ip}
 1b0:	00000004 	andeq	r0, r0, r4
 1b4:	0000000c 	andeq	r0, r0, ip
 1b8:	ffffffff 			; <UNDEFINED> instruction: 0xffffffff
 1bc:	7c020001 	stcvc	0, cr0, [r2], {1}
 1c0:	000d0c0e 	andeq	r0, sp, lr, lsl #24
 1c4:	0000000c 	andeq	r0, r0, ip
 1c8:	000001b4 			; <UNDEFINED> instruction: 0x000001b4
 1cc:	08001cb0 	stmdaeq	r0, {r4, r5, r7, sl, fp, ip}
 1d0:	0000007c 	andeq	r0, r0, ip, ror r0
 1d4:	0000000c 	andeq	r0, r0, ip
 1d8:	ffffffff 			; <UNDEFINED> instruction: 0xffffffff
 1dc:	7c020001 	stcvc	0, cr0, [r2], {1}
 1e0:	000d0c0e 	andeq	r0, sp, lr, lsl #24
 1e4:	0000000c 	andeq	r0, r0, ip
 1e8:	000001d4 	ldrdeq	r0, [r0], -r4
 1ec:	08002b08 	stmdaeq	r0, {r3, r8, r9, fp, sp}
 1f0:	0000000c 	andeq	r0, r0, ip

Disassembly of section .debug_ranges:

00000000 <.debug_ranges>:
   0:	0000002a 	andeq	r0, r0, sl, lsr #32
   4:	0000006a 	andeq	r0, r0, sl, rrx
   8:	00000076 	andeq	r0, r0, r6, ror r0
   c:	000000fc 	strdeq	r0, [r0], -ip
	...
  18:	0000002a 	andeq	r0, r0, sl, lsr #32
  1c:	0000006a 	andeq	r0, r0, sl, rrx
  20:	00000076 	andeq	r0, r0, r6, ror r0
  24:	000000fc 	strdeq	r0, [r0], -ip
	...
  30:	ffffffff 			; <UNDEFINED> instruction: 0xffffffff
  34:	00000000 	andeq	r0, r0, r0
  38:	08002b14 	stmdaeq	r0, {r2, r4, r8, r9, fp, sp}
  3c:	08002b58 	stmdaeq	r0, {r3, r4, r6, r8, r9, fp, sp}
  40:	08002b58 	stmdaeq	r0, {r3, r4, r6, r8, r9, fp, sp}
  44:	08002b5a 	stmdaeq	r0, {r1, r3, r4, r6, r8, r9, fp, sp}
	...
